
vmm/guest/obj/net/ns:     file format elf64-x86-64


Disassembly of section .text:

0000000000800020 <_start>:
// starts us running when we are initially loaded into a new environment.
.text
.globl _start
_start:
	// See if we were started with arguments on the stack
	movabs $USTACKTOP, %rax
  800020:	48 b8 00 e0 7f ef 00 	movabs $0xef7fe000,%rax
  800027:	00 00 00 
	cmpq %rax,%rsp
  80002a:	48 39 c4             	cmp    %rax,%rsp
	jne args_exist
  80002d:	75 04                	jne    800033 <args_exist>

	// If not, push dummy argc/argv arguments.
	// This happens when we are loaded by the kernel,
	// because the kernel does not know about passing arguments.
	pushq $0
  80002f:	6a 00                	pushq  $0x0
	pushq $0
  800031:	6a 00                	pushq  $0x0

0000000000800033 <args_exist>:

args_exist:
	movq 8(%rsp), %rsi
  800033:	48 8b 74 24 08       	mov    0x8(%rsp),%rsi
	movq (%rsp), %rdi
  800038:	48 8b 3c 24          	mov    (%rsp),%rdi
	call libmain
  80003c:	e8 02 10 00 00       	callq  801043 <libmain>
1:	jmp 1b
  800041:	eb fe                	jmp    800041 <args_exist+0xe>

0000000000800043 <next_i>:
static envid_t timer_envid;
static envid_t input_envid;
static envid_t output_envid;

static bool buse[QUEUE_SIZE];
static int next_i(int i) { return (i+1) % QUEUE_SIZE; }
  800043:	55                   	push   %rbp
  800044:	48 89 e5             	mov    %rsp,%rbp
  800047:	48 83 ec 04          	sub    $0x4,%rsp
  80004b:	89 7d fc             	mov    %edi,-0x4(%rbp)
  80004e:	8b 45 fc             	mov    -0x4(%rbp),%eax
  800051:	8d 48 01             	lea    0x1(%rax),%ecx
  800054:	ba 67 66 66 66       	mov    $0x66666667,%edx
  800059:	89 c8                	mov    %ecx,%eax
  80005b:	f7 ea                	imul   %edx
  80005d:	c1 fa 03             	sar    $0x3,%edx
  800060:	89 c8                	mov    %ecx,%eax
  800062:	c1 f8 1f             	sar    $0x1f,%eax
  800065:	29 c2                	sub    %eax,%edx
  800067:	89 d0                	mov    %edx,%eax
  800069:	c1 e0 02             	shl    $0x2,%eax
  80006c:	01 d0                	add    %edx,%eax
  80006e:	c1 e0 02             	shl    $0x2,%eax
  800071:	29 c1                	sub    %eax,%ecx
  800073:	89 ca                	mov    %ecx,%edx
  800075:	89 d0                	mov    %edx,%eax
  800077:	c9                   	leaveq 
  800078:	c3                   	retq   

0000000000800079 <prev_i>:
static int prev_i(int i) { return (i ? i-1 : QUEUE_SIZE-1); }
  800079:	55                   	push   %rbp
  80007a:	48 89 e5             	mov    %rsp,%rbp
  80007d:	48 83 ec 04          	sub    $0x4,%rsp
  800081:	89 7d fc             	mov    %edi,-0x4(%rbp)
  800084:	83 7d fc 00          	cmpl   $0x0,-0x4(%rbp)
  800088:	74 08                	je     800092 <prev_i+0x19>
  80008a:	8b 45 fc             	mov    -0x4(%rbp),%eax
  80008d:	83 e8 01             	sub    $0x1,%eax
  800090:	eb 05                	jmp    800097 <prev_i+0x1e>
  800092:	b8 13 00 00 00       	mov    $0x13,%eax
  800097:	c9                   	leaveq 
  800098:	c3                   	retq   

0000000000800099 <get_buffer>:

static void *
get_buffer(void) {
  800099:	55                   	push   %rbp
  80009a:	48 89 e5             	mov    %rsp,%rbp
  80009d:	48 83 ec 10          	sub    $0x10,%rsp
    void *va;

    int64_t i;
    for (i = 0; i < QUEUE_SIZE; i++)
  8000a1:	48 c7 45 f8 00 00 00 	movq   $0x0,-0x8(%rbp)
  8000a8:	00 
  8000a9:	eb 22                	jmp    8000cd <get_buffer+0x34>
        if (!buse[i]) break;
  8000ab:	48 ba 70 90 82 00 00 	movabs $0x829070,%rdx
  8000b2:	00 00 00 
  8000b5:	48 8b 45 f8          	mov    -0x8(%rbp),%rax
  8000b9:	48 01 d0             	add    %rdx,%rax
  8000bc:	0f b6 00             	movzbl (%rax),%eax
  8000bf:	83 f0 01             	xor    $0x1,%eax
  8000c2:	84 c0                	test   %al,%al
  8000c4:	74 02                	je     8000c8 <get_buffer+0x2f>
  8000c6:	eb 0c                	jmp    8000d4 <get_buffer+0x3b>
static void *
get_buffer(void) {
    void *va;

    int64_t i;
    for (i = 0; i < QUEUE_SIZE; i++)
  8000c8:	48 83 45 f8 01       	addq   $0x1,-0x8(%rbp)
  8000cd:	48 83 7d f8 13       	cmpq   $0x13,-0x8(%rbp)
  8000d2:	7e d7                	jle    8000ab <get_buffer+0x12>
        if (!buse[i]) break;

    if (i == QUEUE_SIZE) {
  8000d4:	48 83 7d f8 14       	cmpq   $0x14,-0x8(%rbp)
  8000d9:	75 2a                	jne    800105 <get_buffer+0x6c>
        panic("NS: buffer overflow");
  8000db:	48 ba 40 0a 82 00 00 	movabs $0x820a40,%rdx
  8000e2:	00 00 00 
  8000e5:	be 40 00 00 00       	mov    $0x40,%esi
  8000ea:	48 bf 54 0a 82 00 00 	movabs $0x820a54,%rdi
  8000f1:	00 00 00 
  8000f4:	b8 00 00 00 00       	mov    $0x0,%eax
  8000f9:	48 b9 e9 10 80 00 00 	movabs $0x8010e9,%rcx
  800100:	00 00 00 
  800103:	ff d1                	callq  *%rcx
        return 0;
    }

    va = (void *)(REQVA + i * PGSIZE);
  800105:	48 8b 45 f8          	mov    -0x8(%rbp),%rax
  800109:	48 05 eb ff 00 00    	add    $0xffeb,%rax
  80010f:	48 c1 e0 0c          	shl    $0xc,%rax
  800113:	48 89 45 f0          	mov    %rax,-0x10(%rbp)
    buse[i] = 1;
  800117:	48 ba 70 90 82 00 00 	movabs $0x829070,%rdx
  80011e:	00 00 00 
  800121:	48 8b 45 f8          	mov    -0x8(%rbp),%rax
  800125:	48 01 d0             	add    %rdx,%rax
  800128:	c6 00 01             	movb   $0x1,(%rax)

    return va;
  80012b:	48 8b 45 f0          	mov    -0x10(%rbp),%rax
}
  80012f:	c9                   	leaveq 
  800130:	c3                   	retq   

0000000000800131 <put_buffer>:

static void
put_buffer(void *va) {
  800131:	55                   	push   %rbp
  800132:	48 89 e5             	mov    %rsp,%rbp
  800135:	48 83 ec 18          	sub    $0x18,%rsp
  800139:	48 89 7d e8          	mov    %rdi,-0x18(%rbp)
    int64_t i = ((uint64_t)va - REQVA) / PGSIZE;
  80013d:	48 8b 45 e8          	mov    -0x18(%rbp),%rax
  800141:	48 2d 00 b0 fe 0f    	sub    $0xffeb000,%rax
  800147:	48 c1 e8 0c          	shr    $0xc,%rax
  80014b:	48 89 45 f8          	mov    %rax,-0x8(%rbp)
    buse[i] = 0;
  80014f:	48 ba 70 90 82 00 00 	movabs $0x829070,%rdx
  800156:	00 00 00 
  800159:	48 8b 45 f8          	mov    -0x8(%rbp),%rax
  80015d:	48 01 d0             	add    %rdx,%rax
  800160:	c6 00 00             	movb   $0x0,(%rax)
}
  800163:	c9                   	leaveq 
  800164:	c3                   	retq   

0000000000800165 <lwip_init>:

    static void
lwip_init(struct netif *nif, void *if_state,
        uint32_t init_addr, uint32_t init_mask, uint32_t init_gw)
{
  800165:	55                   	push   %rbp
  800166:	48 89 e5             	mov    %rsp,%rbp
  800169:	53                   	push   %rbx
  80016a:	48 83 ec 68          	sub    $0x68,%rsp
  80016e:	48 89 7d b8          	mov    %rdi,-0x48(%rbp)
  800172:	48 89 75 b0          	mov    %rsi,-0x50(%rbp)
  800176:	89 55 ac             	mov    %edx,-0x54(%rbp)
  800179:	89 4d a8             	mov    %ecx,-0x58(%rbp)
  80017c:	44 89 45 a4          	mov    %r8d,-0x5c(%rbp)
    struct ip_addr ipaddr, netmask, gateway;
    ipaddr.addr  = init_addr;
  800180:	8b 45 ac             	mov    -0x54(%rbp),%eax
  800183:	89 45 e0             	mov    %eax,-0x20(%rbp)
    netmask.addr = init_mask;
  800186:	8b 45 a8             	mov    -0x58(%rbp),%eax
  800189:	89 45 d0             	mov    %eax,-0x30(%rbp)
    gateway.addr = init_gw;
  80018c:	8b 45 a4             	mov    -0x5c(%rbp),%eax
  80018f:	89 45 c0             	mov    %eax,-0x40(%rbp)

    if (0 == netif_add(nif, &ipaddr, &netmask, &gateway,
  800192:	48 8b 7d b0          	mov    -0x50(%rbp),%rdi
  800196:	48 8d 4d c0          	lea    -0x40(%rbp),%rcx
  80019a:	48 8d 55 d0          	lea    -0x30(%rbp),%rdx
  80019e:	48 8d 75 e0          	lea    -0x20(%rbp),%rsi
  8001a2:	48 8b 45 b8          	mov    -0x48(%rbp),%rax
  8001a6:	48 bb 90 0e 81 00 00 	movabs $0x810e90,%rbx
  8001ad:	00 00 00 
  8001b0:	48 89 1c 24          	mov    %rbx,(%rsp)
  8001b4:	49 b9 23 99 81 00 00 	movabs $0x819923,%r9
  8001bb:	00 00 00 
  8001be:	49 89 f8             	mov    %rdi,%r8
  8001c1:	48 89 c7             	mov    %rax,%rdi
  8001c4:	48 b8 84 cf 80 00 00 	movabs $0x80cf84,%rax
  8001cb:	00 00 00 
  8001ce:	ff d0                	callq  *%rax
  8001d0:	48 85 c0             	test   %rax,%rax
  8001d3:	75 2a                	jne    8001ff <lwip_init+0x9a>
                if_state,
                jif_init,
                ip_input))
        panic("lwip_init: error in netif_add\n");
  8001d5:	48 ba 60 0a 82 00 00 	movabs $0x820a60,%rdx
  8001dc:	00 00 00 
  8001df:	be 5d 00 00 00       	mov    $0x5d,%esi
  8001e4:	48 bf 54 0a 82 00 00 	movabs $0x820a54,%rdi
  8001eb:	00 00 00 
  8001ee:	b8 00 00 00 00       	mov    $0x0,%eax
  8001f3:	48 b9 e9 10 80 00 00 	movabs $0x8010e9,%rcx
  8001fa:	00 00 00 
  8001fd:	ff d1                	callq  *%rcx

    netif_set_default(nif);
  8001ff:	48 8b 45 b8          	mov    -0x48(%rbp),%rax
  800203:	48 89 c7             	mov    %rax,%rdi
  800206:	48 b8 84 d3 80 00 00 	movabs $0x80d384,%rax
  80020d:	00 00 00 
  800210:	ff d0                	callq  *%rax
    netif_set_up(nif);
  800212:	48 8b 45 b8          	mov    -0x48(%rbp),%rax
  800216:	48 89 c7             	mov    %rax,%rdi
  800219:	48 b8 a3 d3 80 00 00 	movabs $0x80d3a3,%rax
  800220:	00 00 00 
  800223:	ff d0                	callq  *%rax
}
  800225:	48 83 c4 68          	add    $0x68,%rsp
  800229:	5b                   	pop    %rbx
  80022a:	5d                   	pop    %rbp
  80022b:	c3                   	retq   

000000000080022c <net_timer>:

    static void __attribute__((noreturn))
net_timer(uint64_t arg)
{
  80022c:	55                   	push   %rbp
  80022d:	48 89 e5             	mov    %rsp,%rbp
  800230:	48 83 ec 20          	sub    $0x20,%rsp
  800234:	48 89 7d e8          	mov    %rdi,-0x18(%rbp)
    struct timer_thread *t = (struct timer_thread *) arg;
  800238:	48 8b 45 e8          	mov    -0x18(%rbp),%rax
  80023c:	48 89 45 f8          	mov    %rax,-0x8(%rbp)

    for (;;) {
        uint32_t cur = sys_time_msec();
  800240:	48 b8 73 2a 80 00 00 	movabs $0x802a73,%rax
  800247:	00 00 00 
  80024a:	ff d0                	callq  *%rax
  80024c:	89 45 f4             	mov    %eax,-0xc(%rbp)

        lwip_core_lock();
  80024f:	48 b8 9e 8a 81 00 00 	movabs $0x818a9e,%rax
  800256:	00 00 00 
  800259:	ff d0                	callq  *%rax
        t->func();
  80025b:	48 8b 45 f8          	mov    -0x8(%rbp),%rax
  80025f:	48 8b 40 08          	mov    0x8(%rax),%rax
  800263:	ff d0                	callq  *%rax
        lwip_core_unlock();
  800265:	48 b8 a4 8a 81 00 00 	movabs $0x818aa4,%rax
  80026c:	00 00 00 
  80026f:	ff d0                	callq  *%rax

        thread_wait(0, 0, cur + t->msec);
  800271:	48 8b 45 f8          	mov    -0x8(%rbp),%rax
  800275:	8b 10                	mov    (%rax),%edx
  800277:	8b 45 f4             	mov    -0xc(%rbp),%eax
  80027a:	01 d0                	add    %edx,%eax
  80027c:	89 c2                	mov    %eax,%edx
  80027e:	be 00 00 00 00       	mov    $0x0,%esi
  800283:	bf 00 00 00 00       	mov    $0x0,%edi
  800288:	48 b8 19 8c 81 00 00 	movabs $0x818c19,%rax
  80028f:	00 00 00 
  800292:	ff d0                	callq  *%rax
    }
  800294:	eb aa                	jmp    800240 <net_timer+0x14>

0000000000800296 <start_timer>:
}

    static void
start_timer(struct timer_thread *t, void (*func)(void), const char *name, int msec)
{
  800296:	55                   	push   %rbp
  800297:	48 89 e5             	mov    %rsp,%rbp
  80029a:	48 83 ec 30          	sub    $0x30,%rsp
  80029e:	48 89 7d e8          	mov    %rdi,-0x18(%rbp)
  8002a2:	48 89 75 e0          	mov    %rsi,-0x20(%rbp)
  8002a6:	48 89 55 d8          	mov    %rdx,-0x28(%rbp)
  8002aa:	89 4d d4             	mov    %ecx,-0x2c(%rbp)
    t->msec = msec;
  8002ad:	8b 55 d4             	mov    -0x2c(%rbp),%edx
  8002b0:	48 8b 45 e8          	mov    -0x18(%rbp),%rax
  8002b4:	89 10                	mov    %edx,(%rax)
    t->func = func;
  8002b6:	48 8b 45 e8          	mov    -0x18(%rbp),%rax
  8002ba:	48 8b 55 e0          	mov    -0x20(%rbp),%rdx
  8002be:	48 89 50 08          	mov    %rdx,0x8(%rax)
    t->name = name;
  8002c2:	48 8b 45 e8          	mov    -0x18(%rbp),%rax
  8002c6:	48 8b 55 d8          	mov    -0x28(%rbp),%rdx
  8002ca:	48 89 50 10          	mov    %rdx,0x10(%rax)
    int r = thread_create(0, name, &net_timer, (uint64_t)t);
  8002ce:	48 8b 55 e8          	mov    -0x18(%rbp),%rdx
  8002d2:	48 8b 45 d8          	mov    -0x28(%rbp),%rax
  8002d6:	48 89 d1             	mov    %rdx,%rcx
  8002d9:	48 ba 2c 02 80 00 00 	movabs $0x80022c,%rdx
  8002e0:	00 00 00 
  8002e3:	48 89 c6             	mov    %rax,%rsi
  8002e6:	bf 00 00 00 00       	mov    $0x0,%edi
  8002eb:	48 b8 8e 8e 81 00 00 	movabs $0x818e8e,%rax
  8002f2:	00 00 00 
  8002f5:	ff d0                	callq  *%rax
  8002f7:	89 45 fc             	mov    %eax,-0x4(%rbp)
    if (r < 0)
  8002fa:	83 7d fc 00          	cmpl   $0x0,-0x4(%rbp)
  8002fe:	79 3f                	jns    80033f <start_timer+0xa9>
        panic("cannot create timer thread: %s", e2s(r));
  800300:	8b 45 fc             	mov    -0x4(%rbp),%eax
  800303:	89 c7                	mov    %eax,%edi
  800305:	48 b8 15 95 81 00 00 	movabs $0x819515,%rax
  80030c:	00 00 00 
  80030f:	ff d0                	callq  *%rax
  800311:	48 89 c1             	mov    %rax,%rcx
  800314:	48 ba 80 0a 82 00 00 	movabs $0x820a80,%rdx
  80031b:	00 00 00 
  80031e:	be 7b 00 00 00       	mov    $0x7b,%esi
  800323:	48 bf 54 0a 82 00 00 	movabs $0x820a54,%rdi
  80032a:	00 00 00 
  80032d:	b8 00 00 00 00       	mov    $0x0,%eax
  800332:	49 b8 e9 10 80 00 00 	movabs $0x8010e9,%r8
  800339:	00 00 00 
  80033c:	41 ff d0             	callq  *%r8
}
  80033f:	c9                   	leaveq 
  800340:	c3                   	retq   

0000000000800341 <tcpip_init_done>:

    static void
tcpip_init_done(void *arg)
{
  800341:	55                   	push   %rbp
  800342:	48 89 e5             	mov    %rsp,%rbp
  800345:	48 83 ec 20          	sub    $0x20,%rsp
  800349:	48 89 7d e8          	mov    %rdi,-0x18(%rbp)
    uint32_t *done = arg;
  80034d:	48 8b 45 e8          	mov    -0x18(%rbp),%rax
  800351:	48 89 45 f8          	mov    %rax,-0x8(%rbp)
    *done = 1;
  800355:	48 8b 45 f8          	mov    -0x8(%rbp),%rax
  800359:	c7 00 01 00 00 00    	movl   $0x1,(%rax)
    thread_wakeup(done);
  80035f:	48 8b 45 f8          	mov    -0x8(%rbp),%rax
  800363:	48 89 c7             	mov    %rax,%rdi
  800366:	48 b8 c6 8b 81 00 00 	movabs $0x818bc6,%rax
  80036d:	00 00 00 
  800370:	ff d0                	callq  *%rax
}
  800372:	c9                   	leaveq 
  800373:	c3                   	retq   

0000000000800374 <serve_init>:

    void
serve_init(uint32_t ipaddr, uint32_t netmask, uint32_t gw)
{
  800374:	55                   	push   %rbp
  800375:	48 89 e5             	mov    %rsp,%rbp
  800378:	48 83 ec 30          	sub    $0x30,%rsp
  80037c:	89 7d ec             	mov    %edi,-0x14(%rbp)
  80037f:	89 75 e8             	mov    %esi,-0x18(%rbp)
  800382:	89 55 e4             	mov    %edx,-0x1c(%rbp)
    int r;
    lwip_core_lock();
  800385:	48 b8 9e 8a 81 00 00 	movabs $0x818a9e,%rax
  80038c:	00 00 00 
  80038f:	ff d0                	callq  *%rax

    uint32_t done = 0;
  800391:	c7 45 fc 00 00 00 00 	movl   $0x0,-0x4(%rbp)
    tcpip_init(&tcpip_init_done, &done);
  800398:	48 8d 45 fc          	lea    -0x4(%rbp),%rax
  80039c:	48 89 c6             	mov    %rax,%rsi
  80039f:	48 bf 41 03 80 00 00 	movabs $0x800341,%rdi
  8003a6:	00 00 00 
  8003a9:	48 b8 4b 8d 80 00 00 	movabs $0x808d4b,%rax
  8003b0:	00 00 00 
  8003b3:	ff d0                	callq  *%rax
    lwip_core_unlock();
  8003b5:	48 b8 a4 8a 81 00 00 	movabs $0x818aa4,%rax
  8003bc:	00 00 00 
  8003bf:	ff d0                	callq  *%rax
    thread_wait(&done, 0, (uint32_t)~0);
  8003c1:	48 8d 45 fc          	lea    -0x4(%rbp),%rax
  8003c5:	ba ff ff ff ff       	mov    $0xffffffff,%edx
  8003ca:	be 00 00 00 00       	mov    $0x0,%esi
  8003cf:	48 89 c7             	mov    %rax,%rdi
  8003d2:	48 b8 19 8c 81 00 00 	movabs $0x818c19,%rax
  8003d9:	00 00 00 
  8003dc:	ff d0                	callq  *%rax
    lwip_core_lock();
  8003de:	48 b8 9e 8a 81 00 00 	movabs $0x818a9e,%rax
  8003e5:	00 00 00 
  8003e8:	ff d0                	callq  *%rax

    lwip_init(&nif, &output_envid, ipaddr, netmask, gw);
  8003ea:	8b 4d e4             	mov    -0x1c(%rbp),%ecx
  8003ed:	8b 55 e8             	mov    -0x18(%rbp),%edx
  8003f0:	8b 45 ec             	mov    -0x14(%rbp),%eax
  8003f3:	41 89 c8             	mov    %ecx,%r8d
  8003f6:	89 d1                	mov    %edx,%ecx
  8003f8:	89 c2                	mov    %eax,%edx
  8003fa:	48 be 60 90 82 00 00 	movabs $0x829060,%rsi
  800401:	00 00 00 
  800404:	48 bf 20 75 b5 00 00 	movabs $0xb57520,%rdi
  80040b:	00 00 00 
  80040e:	48 b8 65 01 80 00 00 	movabs $0x800165,%rax
  800415:	00 00 00 
  800418:	ff d0                	callq  *%rax

    start_timer(&t_arp, &etharp_tmr, "arp timer", ARP_TMR_INTERVAL);
  80041a:	b9 88 13 00 00       	mov    $0x1388,%ecx
  80041f:	48 ba 9f 0a 82 00 00 	movabs $0x820a9f,%rdx
  800426:	00 00 00 
  800429:	48 be 8d 5a 81 00 00 	movabs $0x815a8d,%rsi
  800430:	00 00 00 
  800433:	48 bf 00 90 82 00 00 	movabs $0x829000,%rdi
  80043a:	00 00 00 
  80043d:	48 b8 96 02 80 00 00 	movabs $0x800296,%rax
  800444:	00 00 00 
  800447:	ff d0                	callq  *%rax
    start_timer(&t_tcpf, &tcp_fasttmr, "tcp f timer", TCP_FAST_INTERVAL);
  800449:	b9 fa 00 00 00       	mov    $0xfa,%ecx
  80044e:	48 ba a9 0a 82 00 00 	movabs $0x820aa9,%rdx
  800455:	00 00 00 
  800458:	48 be 1b 03 81 00 00 	movabs $0x81031b,%rsi
  80045f:	00 00 00 
  800462:	48 bf 20 90 82 00 00 	movabs $0x829020,%rdi
  800469:	00 00 00 
  80046c:	48 b8 96 02 80 00 00 	movabs $0x800296,%rax
  800473:	00 00 00 
  800476:	ff d0                	callq  *%rax
    start_timer(&t_tcps, &tcp_slowtmr, "tcp s timer", TCP_SLOW_INTERVAL);
  800478:	b9 f4 01 00 00       	mov    $0x1f4,%ecx
  80047d:	48 ba b5 0a 82 00 00 	movabs $0x820ab5,%rdx
  800484:	00 00 00 
  800487:	48 be df fa 80 00 00 	movabs $0x80fadf,%rsi
  80048e:	00 00 00 
  800491:	48 bf 40 90 82 00 00 	movabs $0x829040,%rdi
  800498:	00 00 00 
  80049b:	48 b8 96 02 80 00 00 	movabs $0x800296,%rax
  8004a2:	00 00 00 
  8004a5:	ff d0                	callq  *%rax

    struct in_addr ia = {ipaddr};
  8004a7:	8b 45 ec             	mov    -0x14(%rbp),%eax
  8004aa:	89 45 f0             	mov    %eax,-0x10(%rbp)
    cprintf("ns: %02x:%02x:%02x:%02x:%02x:%02x"
  8004ad:	8b 45 f0             	mov    -0x10(%rbp),%eax
  8004b0:	89 c7                	mov    %eax,%edi
  8004b2:	48 b8 dd 2e 81 00 00 	movabs $0x812edd,%rax
  8004b9:	00 00 00 
  8004bc:	ff d0                	callq  *%rax
            " bound to static IP %s\n",
            nif.hwaddr[0], nif.hwaddr[1], nif.hwaddr[2],
            nif.hwaddr[3], nif.hwaddr[4], nif.hwaddr[5],
  8004be:	48 ba 20 75 b5 00 00 	movabs $0xb57520,%rdx
  8004c5:	00 00 00 
  8004c8:	0f b6 52 46          	movzbl 0x46(%rdx),%edx
    start_timer(&t_arp, &etharp_tmr, "arp timer", ARP_TMR_INTERVAL);
    start_timer(&t_tcpf, &tcp_fasttmr, "tcp f timer", TCP_FAST_INTERVAL);
    start_timer(&t_tcps, &tcp_slowtmr, "tcp s timer", TCP_SLOW_INTERVAL);

    struct in_addr ia = {ipaddr};
    cprintf("ns: %02x:%02x:%02x:%02x:%02x:%02x"
  8004cc:	0f b6 fa             	movzbl %dl,%edi
            " bound to static IP %s\n",
            nif.hwaddr[0], nif.hwaddr[1], nif.hwaddr[2],
            nif.hwaddr[3], nif.hwaddr[4], nif.hwaddr[5],
  8004cf:	48 ba 20 75 b5 00 00 	movabs $0xb57520,%rdx
  8004d6:	00 00 00 
  8004d9:	0f b6 52 45          	movzbl 0x45(%rdx),%edx
    start_timer(&t_arp, &etharp_tmr, "arp timer", ARP_TMR_INTERVAL);
    start_timer(&t_tcpf, &tcp_fasttmr, "tcp f timer", TCP_FAST_INTERVAL);
    start_timer(&t_tcps, &tcp_slowtmr, "tcp s timer", TCP_SLOW_INTERVAL);

    struct in_addr ia = {ipaddr};
    cprintf("ns: %02x:%02x:%02x:%02x:%02x:%02x"
  8004dd:	44 0f b6 ca          	movzbl %dl,%r9d
            " bound to static IP %s\n",
            nif.hwaddr[0], nif.hwaddr[1], nif.hwaddr[2],
            nif.hwaddr[3], nif.hwaddr[4], nif.hwaddr[5],
  8004e1:	48 ba 20 75 b5 00 00 	movabs $0xb57520,%rdx
  8004e8:	00 00 00 
  8004eb:	0f b6 52 44          	movzbl 0x44(%rdx),%edx
    start_timer(&t_arp, &etharp_tmr, "arp timer", ARP_TMR_INTERVAL);
    start_timer(&t_tcpf, &tcp_fasttmr, "tcp f timer", TCP_FAST_INTERVAL);
    start_timer(&t_tcps, &tcp_slowtmr, "tcp s timer", TCP_SLOW_INTERVAL);

    struct in_addr ia = {ipaddr};
    cprintf("ns: %02x:%02x:%02x:%02x:%02x:%02x"
  8004ef:	44 0f b6 c2          	movzbl %dl,%r8d
            " bound to static IP %s\n",
            nif.hwaddr[0], nif.hwaddr[1], nif.hwaddr[2],
  8004f3:	48 ba 20 75 b5 00 00 	movabs $0xb57520,%rdx
  8004fa:	00 00 00 
  8004fd:	0f b6 52 43          	movzbl 0x43(%rdx),%edx
    start_timer(&t_arp, &etharp_tmr, "arp timer", ARP_TMR_INTERVAL);
    start_timer(&t_tcpf, &tcp_fasttmr, "tcp f timer", TCP_FAST_INTERVAL);
    start_timer(&t_tcps, &tcp_slowtmr, "tcp s timer", TCP_SLOW_INTERVAL);

    struct in_addr ia = {ipaddr};
    cprintf("ns: %02x:%02x:%02x:%02x:%02x:%02x"
  800501:	0f b6 ca             	movzbl %dl,%ecx
            " bound to static IP %s\n",
            nif.hwaddr[0], nif.hwaddr[1], nif.hwaddr[2],
  800504:	48 ba 20 75 b5 00 00 	movabs $0xb57520,%rdx
  80050b:	00 00 00 
  80050e:	0f b6 52 42          	movzbl 0x42(%rdx),%edx
    start_timer(&t_arp, &etharp_tmr, "arp timer", ARP_TMR_INTERVAL);
    start_timer(&t_tcpf, &tcp_fasttmr, "tcp f timer", TCP_FAST_INTERVAL);
    start_timer(&t_tcps, &tcp_slowtmr, "tcp s timer", TCP_SLOW_INTERVAL);

    struct in_addr ia = {ipaddr};
    cprintf("ns: %02x:%02x:%02x:%02x:%02x:%02x"
  800512:	0f b6 d2             	movzbl %dl,%edx
            " bound to static IP %s\n",
            nif.hwaddr[0], nif.hwaddr[1], nif.hwaddr[2],
  800515:	48 be 20 75 b5 00 00 	movabs $0xb57520,%rsi
  80051c:	00 00 00 
  80051f:	0f b6 76 41          	movzbl 0x41(%rsi),%esi
    start_timer(&t_arp, &etharp_tmr, "arp timer", ARP_TMR_INTERVAL);
    start_timer(&t_tcpf, &tcp_fasttmr, "tcp f timer", TCP_FAST_INTERVAL);
    start_timer(&t_tcps, &tcp_slowtmr, "tcp s timer", TCP_SLOW_INTERVAL);

    struct in_addr ia = {ipaddr};
    cprintf("ns: %02x:%02x:%02x:%02x:%02x:%02x"
  800523:	40 0f b6 f6          	movzbl %sil,%esi
  800527:	48 89 44 24 08       	mov    %rax,0x8(%rsp)
  80052c:	89 3c 24             	mov    %edi,(%rsp)
  80052f:	48 bf c8 0a 82 00 00 	movabs $0x820ac8,%rdi
  800536:	00 00 00 
  800539:	b8 00 00 00 00       	mov    $0x0,%eax
  80053e:	49 ba 22 13 80 00 00 	movabs $0x801322,%r10
  800545:	00 00 00 
  800548:	41 ff d2             	callq  *%r10
            " bound to static IP %s\n",
            nif.hwaddr[0], nif.hwaddr[1], nif.hwaddr[2],
            nif.hwaddr[3], nif.hwaddr[4], nif.hwaddr[5],
            inet_ntoa(ia));

    lwip_core_unlock();
  80054b:	48 b8 a4 8a 81 00 00 	movabs $0x818aa4,%rax
  800552:	00 00 00 
  800555:	ff d0                	callq  *%rax

    cprintf("NS: TCP/IP initialized.\n");
  800557:	48 bf 01 0b 82 00 00 	movabs $0x820b01,%rdi
  80055e:	00 00 00 
  800561:	b8 00 00 00 00       	mov    $0x0,%eax
  800566:	48 ba 22 13 80 00 00 	movabs $0x801322,%rdx
  80056d:	00 00 00 
  800570:	ff d2                	callq  *%rdx
}
  800572:	c9                   	leaveq 
  800573:	c3                   	retq   

0000000000800574 <process_timer>:

static void
process_timer(envid_t envid) {
  800574:	55                   	push   %rbp
  800575:	48 89 e5             	mov    %rsp,%rbp
  800578:	48 83 ec 20          	sub    $0x20,%rsp
  80057c:	89 7d ec             	mov    %edi,-0x14(%rbp)
    uint32_t start, now, to;

    if (envid != timer_envid) {
  80057f:	48 b8 58 90 82 00 00 	movabs $0x829058,%rax
  800586:	00 00 00 
  800589:	8b 00                	mov    (%rax),%eax
  80058b:	39 45 ec             	cmp    %eax,-0x14(%rbp)
  80058e:	74 22                	je     8005b2 <process_timer+0x3e>
        cprintf("NS: received timer interrupt from envid %x not timer env\n", envid);
  800590:	8b 45 ec             	mov    -0x14(%rbp),%eax
  800593:	89 c6                	mov    %eax,%esi
  800595:	48 bf 20 0b 82 00 00 	movabs $0x820b20,%rdi
  80059c:	00 00 00 
  80059f:	b8 00 00 00 00       	mov    $0x0,%eax
  8005a4:	48 ba 22 13 80 00 00 	movabs $0x801322,%rdx
  8005ab:	00 00 00 
  8005ae:	ff d2                	callq  *%rdx
        return;
  8005b0:	eb 5a                	jmp    80060c <process_timer+0x98>
    }

    start = sys_time_msec();
  8005b2:	48 b8 73 2a 80 00 00 	movabs $0x802a73,%rax
  8005b9:	00 00 00 
  8005bc:	ff d0                	callq  *%rax
  8005be:	89 45 fc             	mov    %eax,-0x4(%rbp)
    thread_yield();
  8005c1:	48 b8 0e 91 81 00 00 	movabs $0x81910e,%rax
  8005c8:	00 00 00 
  8005cb:	ff d0                	callq  *%rax
    now = sys_time_msec();
  8005cd:	48 b8 73 2a 80 00 00 	movabs $0x802a73,%rax
  8005d4:	00 00 00 
  8005d7:	ff d0                	callq  *%rax
  8005d9:	89 45 f8             	mov    %eax,-0x8(%rbp)

    to = TIMER_INTERVAL - (now - start);
  8005dc:	8b 45 f8             	mov    -0x8(%rbp),%eax
  8005df:	8b 55 fc             	mov    -0x4(%rbp),%edx
  8005e2:	29 c2                	sub    %eax,%edx
  8005e4:	89 d0                	mov    %edx,%eax
  8005e6:	05 fa 00 00 00       	add    $0xfa,%eax
  8005eb:	89 45 f4             	mov    %eax,-0xc(%rbp)
    ipc_send(envid, to, 0, 0);
  8005ee:	8b 75 f4             	mov    -0xc(%rbp),%esi
  8005f1:	8b 45 ec             	mov    -0x14(%rbp),%eax
  8005f4:	b9 00 00 00 00       	mov    $0x0,%ecx
  8005f9:	ba 00 00 00 00       	mov    $0x0,%edx
  8005fe:	89 c7                	mov    %eax,%edi
  800600:	48 b8 bc 32 80 00 00 	movabs $0x8032bc,%rax
  800607:	00 00 00 
  80060a:	ff d0                	callq  *%rax
}
  80060c:	c9                   	leaveq 
  80060d:	c3                   	retq   

000000000080060e <serve_thread>:
    uint32_t whom;
    union Nsipc *req;
};

static void
serve_thread(uint64_t a) {
  80060e:	55                   	push   %rbp
  80060f:	48 89 e5             	mov    %rsp,%rbp
  800612:	48 81 ec b0 00 00 00 	sub    $0xb0,%rsp
  800619:	48 89 bd 58 ff ff ff 	mov    %rdi,-0xa8(%rbp)
    struct st_args *args = (struct st_args *)a;
  800620:	48 8b 85 58 ff ff ff 	mov    -0xa8(%rbp),%rax
  800627:	48 89 45 f0          	mov    %rax,-0x10(%rbp)
    union Nsipc *req = args->req;
  80062b:	48 8b 45 f0          	mov    -0x10(%rbp),%rax
  80062f:	48 8b 40 08          	mov    0x8(%rax),%rax
  800633:	48 89 45 e8          	mov    %rax,-0x18(%rbp)
    int r;

    switch (args->reqno) {
  800637:	48 8b 45 f0          	mov    -0x10(%rbp),%rax
  80063b:	8b 00                	mov    (%rax),%eax
  80063d:	83 f8 0a             	cmp    $0xa,%eax
  800640:	0f 87 d8 01 00 00    	ja     80081e <serve_thread+0x210>
  800646:	89 c0                	mov    %eax,%eax
  800648:	48 8d 14 c5 00 00 00 	lea    0x0(,%rax,8),%rdx
  80064f:	00 
  800650:	48 b8 98 0b 82 00 00 	movabs $0x820b98,%rax
  800657:	00 00 00 
  80065a:	48 01 d0             	add    %rdx,%rax
  80065d:	48 8b 00             	mov    (%rax),%rax
  800660:	ff e0                	jmpq   *%rax
        case NSREQ_ACCEPT:
            {
                struct Nsret_accept ret;
                r = lwip_accept(req->accept.req_s, &ret.ret_addr,
  800662:	48 8b 45 e8          	mov    -0x18(%rbp),%rax
  800666:	8b 00                	mov    (%rax),%eax
  800668:	48 8d 55 d0          	lea    -0x30(%rbp),%rdx
  80066c:	48 83 c2 10          	add    $0x10,%rdx
  800670:	48 8d 4d d0          	lea    -0x30(%rbp),%rcx
  800674:	48 89 ce             	mov    %rcx,%rsi
  800677:	89 c7                	mov    %eax,%edi
  800679:	48 b8 61 5f 80 00 00 	movabs $0x805f61,%rax
  800680:	00 00 00 
  800683:	ff d0                	callq  *%rax
  800685:	89 45 fc             	mov    %eax,-0x4(%rbp)
                        &ret.ret_addrlen);
                memmove(req, &ret, sizeof ret);
  800688:	48 8d 4d d0          	lea    -0x30(%rbp),%rcx
  80068c:	48 8b 45 e8          	mov    -0x18(%rbp),%rax
  800690:	ba 14 00 00 00       	mov    $0x14,%edx
  800695:	48 89 ce             	mov    %rcx,%rsi
  800698:	48 89 c7             	mov    %rax,%rdi
  80069b:	48 b8 fb 21 80 00 00 	movabs $0x8021fb,%rax
  8006a2:	00 00 00 
  8006a5:	ff d0                	callq  *%rax
                break;
  8006a7:	90                   	nop
  8006a8:	e9 a5 01 00 00       	jmpq   800852 <serve_thread+0x244>
            }
        case NSREQ_BIND:
            r = lwip_bind(req->bind.req_s, &req->bind.req_name,
  8006ad:	48 8b 45 e8          	mov    -0x18(%rbp),%rax
  8006b1:	8b 50 14             	mov    0x14(%rax),%edx
  8006b4:	48 8b 45 e8          	mov    -0x18(%rbp),%rax
  8006b8:	48 8d 48 04          	lea    0x4(%rax),%rcx
  8006bc:	48 8b 45 e8          	mov    -0x18(%rbp),%rax
  8006c0:	8b 00                	mov    (%rax),%eax
  8006c2:	48 89 ce             	mov    %rcx,%rsi
  8006c5:	89 c7                	mov    %eax,%edi
  8006c7:	48 b8 94 62 80 00 00 	movabs $0x806294,%rax
  8006ce:	00 00 00 
  8006d1:	ff d0                	callq  *%rax
  8006d3:	89 45 fc             	mov    %eax,-0x4(%rbp)
                    req->bind.req_namelen);
            break;
  8006d6:	e9 77 01 00 00       	jmpq   800852 <serve_thread+0x244>
        case NSREQ_SHUTDOWN:
            r = lwip_shutdown(req->shutdown.req_s, req->shutdown.req_how);
  8006db:	48 8b 45 e8          	mov    -0x18(%rbp),%rax
  8006df:	8b 50 04             	mov    0x4(%rax),%edx
  8006e2:	48 8b 45 e8          	mov    -0x18(%rbp),%rax
  8006e6:	8b 00                	mov    (%rax),%eax
  8006e8:	89 d6                	mov    %edx,%esi
  8006ea:	89 c7                	mov    %eax,%edi
  8006ec:	48 b8 f8 79 80 00 00 	movabs $0x8079f8,%rax
  8006f3:	00 00 00 
  8006f6:	ff d0                	callq  *%rax
  8006f8:	89 45 fc             	mov    %eax,-0x4(%rbp)
            break;
  8006fb:	e9 52 01 00 00       	jmpq   800852 <serve_thread+0x244>
        case NSREQ_CLOSE:
            r = lwip_close(req->close.req_s);
  800700:	48 8b 45 e8          	mov    -0x18(%rbp),%rax
  800704:	8b 00                	mov    (%rax),%eax
  800706:	89 c7                	mov    %eax,%edi
  800708:	48 b8 c9 63 80 00 00 	movabs $0x8063c9,%rax
  80070f:	00 00 00 
  800712:	ff d0                	callq  *%rax
  800714:	89 45 fc             	mov    %eax,-0x4(%rbp)
            break;
  800717:	e9 36 01 00 00       	jmpq   800852 <serve_thread+0x244>
        case NSREQ_CONNECT:
            r = lwip_connect(req->connect.req_s, &req->connect.req_name,
  80071c:	48 8b 45 e8          	mov    -0x18(%rbp),%rax
  800720:	8b 50 14             	mov    0x14(%rax),%edx
  800723:	48 8b 45 e8          	mov    -0x18(%rbp),%rax
  800727:	48 8d 48 04          	lea    0x4(%rax),%rcx
  80072b:	48 8b 45 e8          	mov    -0x18(%rbp),%rax
  80072f:	8b 00                	mov    (%rax),%eax
  800731:	48 89 ce             	mov    %rcx,%rsi
  800734:	89 c7                	mov    %eax,%edi
  800736:	48 b8 ae 64 80 00 00 	movabs $0x8064ae,%rax
  80073d:	00 00 00 
  800740:	ff d0                	callq  *%rax
  800742:	89 45 fc             	mov    %eax,-0x4(%rbp)
                    req->connect.req_namelen);
            break;
  800745:	e9 08 01 00 00       	jmpq   800852 <serve_thread+0x244>
        case NSREQ_LISTEN:
            r = lwip_listen(req->listen.req_s, req->listen.req_backlog);
  80074a:	48 8b 45 e8          	mov    -0x18(%rbp),%rax
  80074e:	8b 50 04             	mov    0x4(%rax),%edx
  800751:	48 8b 45 e8          	mov    -0x18(%rbp),%rax
  800755:	8b 00                	mov    (%rax),%eax
  800757:	89 d6                	mov    %edx,%esi
  800759:	89 c7                	mov    %eax,%edi
  80075b:	48 b8 0a 66 80 00 00 	movabs $0x80660a,%rax
  800762:	00 00 00 
  800765:	ff d0                	callq  *%rax
  800767:	89 45 fc             	mov    %eax,-0x4(%rbp)
            break;
  80076a:	e9 e3 00 00 00       	jmpq   800852 <serve_thread+0x244>
        case NSREQ_RECV:
            // Note that we read the request fields before we
            // overwrite it with the response data.
            r = lwip_recv(req->recv.req_s, req->recvRet.ret_buf,
  80076f:	48 8b 45 e8          	mov    -0x18(%rbp),%rax
  800773:	8b 48 08             	mov    0x8(%rax),%ecx
  800776:	48 8b 45 e8          	mov    -0x18(%rbp),%rax
  80077a:	8b 50 04             	mov    0x4(%rax),%edx
  80077d:	48 8b 75 e8          	mov    -0x18(%rbp),%rsi
  800781:	48 8b 45 e8          	mov    -0x18(%rbp),%rax
  800785:	8b 00                	mov    (%rax),%eax
  800787:	89 c7                	mov    %eax,%edi
  800789:	48 b8 09 6b 80 00 00 	movabs $0x806b09,%rax
  800790:	00 00 00 
  800793:	ff d0                	callq  *%rax
  800795:	89 45 fc             	mov    %eax,-0x4(%rbp)
                    req->recv.req_len, req->recv.req_flags);
            break;
  800798:	e9 b5 00 00 00       	jmpq   800852 <serve_thread+0x244>
        case NSREQ_SEND:
            r = lwip_send(req->send.req_s, &req->send.req_buf,
  80079d:	48 8b 45 e8          	mov    -0x18(%rbp),%rax
  8007a1:	8b 48 08             	mov    0x8(%rax),%ecx
  8007a4:	48 8b 45 e8          	mov    -0x18(%rbp),%rax
  8007a8:	8b 50 04             	mov    0x4(%rax),%edx
  8007ab:	48 8b 45 e8          	mov    -0x18(%rbp),%rax
  8007af:	48 8d 70 0c          	lea    0xc(%rax),%rsi
  8007b3:	48 8b 45 e8          	mov    -0x18(%rbp),%rax
  8007b7:	8b 00                	mov    (%rax),%eax
  8007b9:	89 c7                	mov    %eax,%edi
  8007bb:	48 b8 47 6b 80 00 00 	movabs $0x806b47,%rax
  8007c2:	00 00 00 
  8007c5:	ff d0                	callq  *%rax
  8007c7:	89 45 fc             	mov    %eax,-0x4(%rbp)
                    req->send.req_size, req->send.req_flags);
            break;
  8007ca:	e9 83 00 00 00       	jmpq   800852 <serve_thread+0x244>
        case NSREQ_SOCKET:
            r = lwip_socket(req->socket.req_domain, req->socket.req_type,
  8007cf:	48 8b 45 e8          	mov    -0x18(%rbp),%rax
  8007d3:	8b 50 08             	mov    0x8(%rax),%edx
  8007d6:	48 8b 45 e8          	mov    -0x18(%rbp),%rax
  8007da:	8b 48 04             	mov    0x4(%rax),%ecx
  8007dd:	48 8b 45 e8          	mov    -0x18(%rbp),%rax
  8007e1:	8b 00                	mov    (%rax),%eax
  8007e3:	89 ce                	mov    %ecx,%esi
  8007e5:	89 c7                	mov    %eax,%edi
  8007e7:	48 b8 64 6e 80 00 00 	movabs $0x806e64,%rax
  8007ee:	00 00 00 
  8007f1:	ff d0                	callq  *%rax
  8007f3:	89 45 fc             	mov    %eax,-0x4(%rbp)
                    req->socket.req_protocol);
            break;
  8007f6:	eb 5a                	jmp    800852 <serve_thread+0x244>
        case NSREQ_INPUT:
            jif_input(&nif, (void *)&req->pkt);
  8007f8:	48 8b 45 e8          	mov    -0x18(%rbp),%rax
  8007fc:	48 89 c6             	mov    %rax,%rsi
  8007ff:	48 bf 20 75 b5 00 00 	movabs $0xb57520,%rdi
  800806:	00 00 00 
  800809:	48 b8 28 98 81 00 00 	movabs $0x819828,%rax
  800810:	00 00 00 
  800813:	ff d0                	callq  *%rax
            r = 0;
  800815:	c7 45 fc 00 00 00 00 	movl   $0x0,-0x4(%rbp)
            break;
  80081c:	eb 34                	jmp    800852 <serve_thread+0x244>
        default:
            cprintf("Invalid request code %d from %08x\n", args->whom, args->req);
  80081e:	48 8b 45 f0          	mov    -0x10(%rbp),%rax
  800822:	48 8b 50 08          	mov    0x8(%rax),%rdx
  800826:	48 8b 45 f0          	mov    -0x10(%rbp),%rax
  80082a:	8b 40 04             	mov    0x4(%rax),%eax
  80082d:	89 c6                	mov    %eax,%esi
  80082f:	48 bf 60 0b 82 00 00 	movabs $0x820b60,%rdi
  800836:	00 00 00 
  800839:	b8 00 00 00 00       	mov    $0x0,%eax
  80083e:	48 b9 22 13 80 00 00 	movabs $0x801322,%rcx
  800845:	00 00 00 
  800848:	ff d1                	callq  *%rcx
            r = -E_INVAL;
  80084a:	c7 45 fc fd ff ff ff 	movl   $0xfffffffd,-0x4(%rbp)
            break;
  800851:	90                   	nop
    }

    if (r == -1) {
  800852:	83 7d fc ff          	cmpl   $0xffffffff,-0x4(%rbp)
  800856:	75 49                	jne    8008a1 <serve_thread+0x293>
        char buf[100];
        snprintf(buf, sizeof buf, "ns req type %d", args->reqno);
  800858:	48 8b 45 f0          	mov    -0x10(%rbp),%rax
  80085c:	8b 10                	mov    (%rax),%edx
  80085e:	48 8d 85 60 ff ff ff 	lea    -0xa0(%rbp),%rax
  800865:	89 d1                	mov    %edx,%ecx
  800867:	48 ba 83 0b 82 00 00 	movabs $0x820b83,%rdx
  80086e:	00 00 00 
  800871:	be 64 00 00 00       	mov    $0x64,%esi
  800876:	48 89 c7             	mov    %rax,%rdi
  800879:	b8 00 00 00 00       	mov    $0x0,%eax
  80087e:	49 b8 8a 1d 80 00 00 	movabs $0x801d8a,%r8
  800885:	00 00 00 
  800888:	41 ff d0             	callq  *%r8
        perror(buf);
  80088b:	48 8d 85 60 ff ff ff 	lea    -0xa0(%rbp),%rax
  800892:	48 89 c7             	mov    %rax,%rdi
  800895:	48 b8 c2 94 81 00 00 	movabs $0x8194c2,%rax
  80089c:	00 00 00 
  80089f:	ff d0                	callq  *%rax
    }

    if (args->reqno != NSREQ_INPUT)
  8008a1:	48 8b 45 f0          	mov    -0x10(%rbp),%rax
  8008a5:	8b 00                	mov    (%rax),%eax
  8008a7:	83 f8 0a             	cmp    $0xa,%eax
  8008aa:	74 22                	je     8008ce <serve_thread+0x2c0>
        ipc_send(args->whom, r, 0, 0);
  8008ac:	8b 75 fc             	mov    -0x4(%rbp),%esi
  8008af:	48 8b 45 f0          	mov    -0x10(%rbp),%rax
  8008b3:	8b 40 04             	mov    0x4(%rax),%eax
  8008b6:	b9 00 00 00 00       	mov    $0x0,%ecx
  8008bb:	ba 00 00 00 00       	mov    $0x0,%edx
  8008c0:	89 c7                	mov    %eax,%edi
  8008c2:	48 b8 bc 32 80 00 00 	movabs $0x8032bc,%rax
  8008c9:	00 00 00 
  8008cc:	ff d0                	callq  *%rax

    put_buffer(args->req);
  8008ce:	48 8b 45 f0          	mov    -0x10(%rbp),%rax
  8008d2:	48 8b 40 08          	mov    0x8(%rax),%rax
  8008d6:	48 89 c7             	mov    %rax,%rdi
  8008d9:	48 b8 31 01 80 00 00 	movabs $0x800131,%rax
  8008e0:	00 00 00 
  8008e3:	ff d0                	callq  *%rax
    sys_page_unmap(0, (void*) args->req);
  8008e5:	48 8b 45 f0          	mov    -0x10(%rbp),%rax
  8008e9:	48 8b 40 08          	mov    0x8(%rax),%rax
  8008ed:	48 89 c6             	mov    %rax,%rsi
  8008f0:	bf 00 00 00 00       	mov    $0x0,%edi
  8008f5:	48 b8 b1 28 80 00 00 	movabs $0x8028b1,%rax
  8008fc:	00 00 00 
  8008ff:	ff d0                	callq  *%rax
    free(args);
  800901:	48 8b 45 f0          	mov    -0x10(%rbp),%rax
  800905:	48 89 c7             	mov    %rax,%rdi
  800908:	48 b8 8d 51 80 00 00 	movabs $0x80518d,%rax
  80090f:	00 00 00 
  800912:	ff d0                	callq  *%rax
}
  800914:	c9                   	leaveq 
  800915:	c3                   	retq   

0000000000800916 <serve>:

void
serve(void) {
  800916:	55                   	push   %rbp
  800917:	48 89 e5             	mov    %rsp,%rbp
  80091a:	48 83 ec 30          	sub    $0x30,%rsp

    while (1) {
        // ipc_recv will block the entire process, so we flush
        // all pending work from other threads.  We limit the
        // number of yields in case there's a rogue thread.
        for (i = 0; thread_wakeups_pending() && i < 32; ++i)
  80091e:	c7 45 fc 00 00 00 00 	movl   $0x0,-0x4(%rbp)
  800925:	eb 10                	jmp    800937 <serve+0x21>
            thread_yield();
  800927:	48 b8 0e 91 81 00 00 	movabs $0x81910e,%rax
  80092e:	00 00 00 
  800931:	ff d0                	callq  *%rax

    while (1) {
        // ipc_recv will block the entire process, so we flush
        // all pending work from other threads.  We limit the
        // number of yields in case there's a rogue thread.
        for (i = 0; thread_wakeups_pending() && i < 32; ++i)
  800933:	83 45 fc 01          	addl   $0x1,-0x4(%rbp)
  800937:	48 b8 f7 8c 81 00 00 	movabs $0x818cf7,%rax
  80093e:	00 00 00 
  800941:	ff d0                	callq  *%rax
  800943:	85 c0                	test   %eax,%eax
  800945:	74 06                	je     80094d <serve+0x37>
  800947:	83 7d fc 1f          	cmpl   $0x1f,-0x4(%rbp)
  80094b:	7e da                	jle    800927 <serve+0x11>
            thread_yield();

        perm = 0;
  80094d:	c7 45 d8 00 00 00 00 	movl   $0x0,-0x28(%rbp)
        va = get_buffer();
  800954:	48 b8 99 00 80 00 00 	movabs $0x800099,%rax
  80095b:	00 00 00 
  80095e:	ff d0                	callq  *%rax
  800960:	48 89 45 f0          	mov    %rax,-0x10(%rbp)
        reqno = ipc_recv((int32_t *) &whom, (void *) va, &perm);
  800964:	48 8d 55 d8          	lea    -0x28(%rbp),%rdx
  800968:	48 8b 4d f0          	mov    -0x10(%rbp),%rcx
  80096c:	48 8d 45 dc          	lea    -0x24(%rbp),%rax
  800970:	48 89 ce             	mov    %rcx,%rsi
  800973:	48 89 c7             	mov    %rax,%rdi
  800976:	48 b8 fb 31 80 00 00 	movabs $0x8031fb,%rax
  80097d:	00 00 00 
  800980:	ff d0                	callq  *%rax
  800982:	89 45 ec             	mov    %eax,-0x14(%rbp)
        if (debug) {
            cprintf("ns req %d from %08x\n", reqno, whom);
        }

        // first take care of requests that do not contain an argument page
        if (reqno == NSREQ_TIMER) {
  800985:	83 7d ec 0c          	cmpl   $0xc,-0x14(%rbp)
  800989:	75 29                	jne    8009b4 <serve+0x9e>
            process_timer(whom);
  80098b:	8b 45 dc             	mov    -0x24(%rbp),%eax
  80098e:	89 c7                	mov    %eax,%edi
  800990:	48 b8 74 05 80 00 00 	movabs $0x800574,%rax
  800997:	00 00 00 
  80099a:	ff d0                	callq  *%rax
            put_buffer(va);
  80099c:	48 8b 45 f0          	mov    -0x10(%rbp),%rax
  8009a0:	48 89 c7             	mov    %rax,%rdi
  8009a3:	48 b8 31 01 80 00 00 	movabs $0x800131,%rax
  8009aa:	00 00 00 
  8009ad:	ff d0                	callq  *%rax
            continue;
  8009af:	e9 d1 00 00 00       	jmpq   800a85 <serve+0x16f>
        }

        // All remaining requests must contain an argument page
        if (!(perm & PTE_P)) {
  8009b4:	8b 45 d8             	mov    -0x28(%rbp),%eax
  8009b7:	83 e0 01             	and    $0x1,%eax
  8009ba:	85 c0                	test   %eax,%eax
  8009bc:	75 25                	jne    8009e3 <serve+0xcd>
            cprintf("Invalid request from %08x: no argument page\n", whom);
  8009be:	8b 45 dc             	mov    -0x24(%rbp),%eax
  8009c1:	89 c6                	mov    %eax,%esi
  8009c3:	48 bf f0 0b 82 00 00 	movabs $0x820bf0,%rdi
  8009ca:	00 00 00 
  8009cd:	b8 00 00 00 00       	mov    $0x0,%eax
  8009d2:	48 ba 22 13 80 00 00 	movabs $0x801322,%rdx
  8009d9:	00 00 00 
  8009dc:	ff d2                	callq  *%rdx
            continue; // just leave it hanging...
  8009de:	e9 a2 00 00 00       	jmpq   800a85 <serve+0x16f>
        }

        // Since some lwIP socket calls will block, create a thread and
        // process the rest of the request in the thread.
        struct st_args *args = malloc(sizeof(struct st_args));
  8009e3:	bf 10 00 00 00       	mov    $0x10,%edi
  8009e8:	48 b8 0f 4e 80 00 00 	movabs $0x804e0f,%rax
  8009ef:	00 00 00 
  8009f2:	ff d0                	callq  *%rax
  8009f4:	48 89 45 e0          	mov    %rax,-0x20(%rbp)
        if (!args)
  8009f8:	48 83 7d e0 00       	cmpq   $0x0,-0x20(%rbp)
  8009fd:	75 2a                	jne    800a29 <serve+0x113>
            panic("could not allocate thread args structure");
  8009ff:	48 ba 20 0c 82 00 00 	movabs $0x820c20,%rdx
  800a06:	00 00 00 
  800a09:	be 27 01 00 00       	mov    $0x127,%esi
  800a0e:	48 bf 54 0a 82 00 00 	movabs $0x820a54,%rdi
  800a15:	00 00 00 
  800a18:	b8 00 00 00 00       	mov    $0x0,%eax
  800a1d:	48 b9 e9 10 80 00 00 	movabs $0x8010e9,%rcx
  800a24:	00 00 00 
  800a27:	ff d1                	callq  *%rcx

        args->reqno = reqno;
  800a29:	48 8b 45 e0          	mov    -0x20(%rbp),%rax
  800a2d:	8b 55 ec             	mov    -0x14(%rbp),%edx
  800a30:	89 10                	mov    %edx,(%rax)
        args->whom = whom;
  800a32:	8b 55 dc             	mov    -0x24(%rbp),%edx
  800a35:	48 8b 45 e0          	mov    -0x20(%rbp),%rax
  800a39:	89 50 04             	mov    %edx,0x4(%rax)
        args->req = va;
  800a3c:	48 8b 45 e0          	mov    -0x20(%rbp),%rax
  800a40:	48 8b 55 f0          	mov    -0x10(%rbp),%rdx
  800a44:	48 89 50 08          	mov    %rdx,0x8(%rax)

        thread_create(0, "serve_thread", serve_thread, (uint64_t)args);
  800a48:	48 8b 45 e0          	mov    -0x20(%rbp),%rax
  800a4c:	48 89 c1             	mov    %rax,%rcx
  800a4f:	48 ba 0e 06 80 00 00 	movabs $0x80060e,%rdx
  800a56:	00 00 00 
  800a59:	48 be 49 0c 82 00 00 	movabs $0x820c49,%rsi
  800a60:	00 00 00 
  800a63:	bf 00 00 00 00       	mov    $0x0,%edi
  800a68:	48 b8 8e 8e 81 00 00 	movabs $0x818e8e,%rax
  800a6f:	00 00 00 
  800a72:	ff d0                	callq  *%rax
        thread_yield(); // let the thread created run
  800a74:	48 b8 0e 91 81 00 00 	movabs $0x81910e,%rax
  800a7b:	00 00 00 
  800a7e:	ff d0                	callq  *%rax
    }
  800a80:	e9 99 fe ff ff       	jmpq   80091e <serve+0x8>
  800a85:	e9 94 fe ff ff       	jmpq   80091e <serve+0x8>

0000000000800a8a <tmain>:
}

static void
tmain(uint64_t arg) {
  800a8a:	55                   	push   %rbp
  800a8b:	48 89 e5             	mov    %rsp,%rbp
  800a8e:	41 54                	push   %r12
  800a90:	53                   	push   %rbx
  800a91:	48 83 ec 10          	sub    $0x10,%rsp
  800a95:	48 89 7d e8          	mov    %rdi,-0x18(%rbp)
    serve_init(inet_addr(IP),
  800a99:	48 bf 56 0c 82 00 00 	movabs $0x820c56,%rdi
  800aa0:	00 00 00 
  800aa3:	48 b8 00 2c 81 00 00 	movabs $0x812c00,%rax
  800aaa:	00 00 00 
  800aad:	ff d0                	callq  *%rax
  800aaf:	41 89 c4             	mov    %eax,%r12d
  800ab2:	48 bf 5f 0c 82 00 00 	movabs $0x820c5f,%rdi
  800ab9:	00 00 00 
  800abc:	48 b8 00 2c 81 00 00 	movabs $0x812c00,%rax
  800ac3:	00 00 00 
  800ac6:	ff d0                	callq  *%rax
  800ac8:	89 c3                	mov    %eax,%ebx
  800aca:	48 bf 6d 0c 82 00 00 	movabs $0x820c6d,%rdi
  800ad1:	00 00 00 
  800ad4:	48 b8 00 2c 81 00 00 	movabs $0x812c00,%rax
  800adb:	00 00 00 
  800ade:	ff d0                	callq  *%rax
  800ae0:	44 89 e2             	mov    %r12d,%edx
  800ae3:	89 de                	mov    %ebx,%esi
  800ae5:	89 c7                	mov    %eax,%edi
  800ae7:	48 b8 74 03 80 00 00 	movabs $0x800374,%rax
  800aee:	00 00 00 
  800af1:	ff d0                	callq  *%rax
            inet_addr(MASK),
            inet_addr(DEFAULT));
    serve();
  800af3:	48 b8 16 09 80 00 00 	movabs $0x800916,%rax
  800afa:	00 00 00 
  800afd:	ff d0                	callq  *%rax
}
  800aff:	48 83 c4 10          	add    $0x10,%rsp
  800b03:	5b                   	pop    %rbx
  800b04:	41 5c                	pop    %r12
  800b06:	5d                   	pop    %rbp
  800b07:	c3                   	retq   

0000000000800b08 <umain>:

    void
umain(int argc, char **argv)
{
  800b08:	55                   	push   %rbp
  800b09:	48 89 e5             	mov    %rsp,%rbp
  800b0c:	53                   	push   %rbx
  800b0d:	48 83 ec 28          	sub    $0x28,%rsp
  800b11:	89 7d dc             	mov    %edi,-0x24(%rbp)
  800b14:	48 89 75 d0          	mov    %rsi,-0x30(%rbp)
    envid_t ns_envid = sys_getenvid();
  800b18:	48 b8 8a 27 80 00 00 	movabs $0x80278a,%rax
  800b1f:	00 00 00 
  800b22:	ff d0                	callq  *%rax
  800b24:	89 45 ec             	mov    %eax,-0x14(%rbp)

    binaryname = "ns";
  800b27:	48 b8 00 80 82 00 00 	movabs $0x828000,%rax
  800b2e:	00 00 00 
  800b31:	48 bb 77 0c 82 00 00 	movabs $0x820c77,%rbx
  800b38:	00 00 00 
  800b3b:	48 89 18             	mov    %rbx,(%rax)

    // fork off the timer thread which will send us periodic messages
    timer_envid = fork();
  800b3e:	48 b8 86 2f 80 00 00 	movabs $0x802f86,%rax
  800b45:	00 00 00 
  800b48:	ff d0                	callq  *%rax
  800b4a:	48 ba 58 90 82 00 00 	movabs $0x829058,%rdx
  800b51:	00 00 00 
  800b54:	89 02                	mov    %eax,(%rdx)
    if (timer_envid < 0)
  800b56:	48 b8 58 90 82 00 00 	movabs $0x829058,%rax
  800b5d:	00 00 00 
  800b60:	8b 00                	mov    (%rax),%eax
  800b62:	85 c0                	test   %eax,%eax
  800b64:	79 2a                	jns    800b90 <umain+0x88>
        panic("error forking");
  800b66:	48 ba 7a 0c 82 00 00 	movabs $0x820c7a,%rdx
  800b6d:	00 00 00 
  800b70:	be 44 01 00 00       	mov    $0x144,%esi
  800b75:	48 bf 54 0a 82 00 00 	movabs $0x820a54,%rdi
  800b7c:	00 00 00 
  800b7f:	b8 00 00 00 00       	mov    $0x0,%eax
  800b84:	48 b9 e9 10 80 00 00 	movabs $0x8010e9,%rcx
  800b8b:	00 00 00 
  800b8e:	ff d1                	callq  *%rcx
    else if (timer_envid == 0) {
  800b90:	48 b8 58 90 82 00 00 	movabs $0x829058,%rax
  800b97:	00 00 00 
  800b9a:	8b 00                	mov    (%rax),%eax
  800b9c:	85 c0                	test   %eax,%eax
  800b9e:	75 1b                	jne    800bbb <umain+0xb3>
        timer(ns_envid, TIMER_INTERVAL);
  800ba0:	8b 45 ec             	mov    -0x14(%rbp),%eax
  800ba3:	be fa 00 00 00       	mov    $0xfa,%esi
  800ba8:	89 c7                	mov    %eax,%edi
  800baa:	48 b8 f1 0c 80 00 00 	movabs $0x800cf1,%rax
  800bb1:	00 00 00 
  800bb4:	ff d0                	callq  *%rax
        return;
  800bb6:	e9 2f 01 00 00       	jmpq   800cea <umain+0x1e2>
    }

    // fork off the input thread which will poll the NIC driver for input
    // packets
    input_envid = fork();
  800bbb:	48 b8 86 2f 80 00 00 	movabs $0x802f86,%rax
  800bc2:	00 00 00 
  800bc5:	ff d0                	callq  *%rax
  800bc7:	48 ba 5c 90 82 00 00 	movabs $0x82905c,%rdx
  800bce:	00 00 00 
  800bd1:	89 02                	mov    %eax,(%rdx)
    if (input_envid < 0)
  800bd3:	48 b8 5c 90 82 00 00 	movabs $0x82905c,%rax
  800bda:	00 00 00 
  800bdd:	8b 00                	mov    (%rax),%eax
  800bdf:	85 c0                	test   %eax,%eax
  800be1:	79 2a                	jns    800c0d <umain+0x105>
        panic("error forking");
  800be3:	48 ba 7a 0c 82 00 00 	movabs $0x820c7a,%rdx
  800bea:	00 00 00 
  800bed:	be 4e 01 00 00       	mov    $0x14e,%esi
  800bf2:	48 bf 54 0a 82 00 00 	movabs $0x820a54,%rdi
  800bf9:	00 00 00 
  800bfc:	b8 00 00 00 00       	mov    $0x0,%eax
  800c01:	48 b9 e9 10 80 00 00 	movabs $0x8010e9,%rcx
  800c08:	00 00 00 
  800c0b:	ff d1                	callq  *%rcx
    else if (input_envid == 0) {
  800c0d:	48 b8 5c 90 82 00 00 	movabs $0x82905c,%rax
  800c14:	00 00 00 
  800c17:	8b 00                	mov    (%rax),%eax
  800c19:	85 c0                	test   %eax,%eax
  800c1b:	75 16                	jne    800c33 <umain+0x12b>
        input(ns_envid);
  800c1d:	8b 45 ec             	mov    -0x14(%rbp),%eax
  800c20:	89 c7                	mov    %eax,%edi
  800c22:	48 b8 12 0e 80 00 00 	movabs $0x800e12,%rax
  800c29:	00 00 00 
  800c2c:	ff d0                	callq  *%rax
        return;
  800c2e:	e9 b7 00 00 00       	jmpq   800cea <umain+0x1e2>
    }

    // fork off the output thread that will send the packets to the NIC
    // driver
    output_envid = fork();
  800c33:	48 b8 86 2f 80 00 00 	movabs $0x802f86,%rax
  800c3a:	00 00 00 
  800c3d:	ff d0                	callq  *%rax
  800c3f:	48 ba 60 90 82 00 00 	movabs $0x829060,%rdx
  800c46:	00 00 00 
  800c49:	89 02                	mov    %eax,(%rdx)
    if (output_envid < 0)
  800c4b:	48 b8 60 90 82 00 00 	movabs $0x829060,%rax
  800c52:	00 00 00 
  800c55:	8b 00                	mov    (%rax),%eax
  800c57:	85 c0                	test   %eax,%eax
  800c59:	79 2a                	jns    800c85 <umain+0x17d>
        panic("error forking");
  800c5b:	48 ba 7a 0c 82 00 00 	movabs $0x820c7a,%rdx
  800c62:	00 00 00 
  800c65:	be 58 01 00 00       	mov    $0x158,%esi
  800c6a:	48 bf 54 0a 82 00 00 	movabs $0x820a54,%rdi
  800c71:	00 00 00 
  800c74:	b8 00 00 00 00       	mov    $0x0,%eax
  800c79:	48 b9 e9 10 80 00 00 	movabs $0x8010e9,%rcx
  800c80:	00 00 00 
  800c83:	ff d1                	callq  *%rcx
    else if (output_envid == 0) {
  800c85:	48 b8 60 90 82 00 00 	movabs $0x829060,%rax
  800c8c:	00 00 00 
  800c8f:	8b 00                	mov    (%rax),%eax
  800c91:	85 c0                	test   %eax,%eax
  800c93:	75 13                	jne    800ca8 <umain+0x1a0>
        output(ns_envid);
  800c95:	8b 45 ec             	mov    -0x14(%rbp),%eax
  800c98:	89 c7                	mov    %eax,%edi
  800c9a:	48 b8 2c 0f 80 00 00 	movabs $0x800f2c,%rax
  800ca1:	00 00 00 
  800ca4:	ff d0                	callq  *%rax
        return;
  800ca6:	eb 42                	jmp    800cea <umain+0x1e2>
    }

    // lwIP requires a user threading library; start the library and jump
    // into a thread to continue initialization.
    thread_init();
  800ca8:	48 b8 85 8b 81 00 00 	movabs $0x818b85,%rax
  800caf:	00 00 00 
  800cb2:	ff d0                	callq  *%rax
    thread_create(0, "main", tmain, 0);
  800cb4:	b9 00 00 00 00       	mov    $0x0,%ecx
  800cb9:	48 ba 8a 0a 80 00 00 	movabs $0x800a8a,%rdx
  800cc0:	00 00 00 
  800cc3:	48 be 88 0c 82 00 00 	movabs $0x820c88,%rsi
  800cca:	00 00 00 
  800ccd:	bf 00 00 00 00       	mov    $0x0,%edi
  800cd2:	48 b8 8e 8e 81 00 00 	movabs $0x818e8e,%rax
  800cd9:	00 00 00 
  800cdc:	ff d0                	callq  *%rax
    thread_yield();
  800cde:	48 b8 0e 91 81 00 00 	movabs $0x81910e,%rax
  800ce5:	00 00 00 
  800ce8:	ff d0                	callq  *%rax
    // never coming here!
}
  800cea:	48 83 c4 28          	add    $0x28,%rsp
  800cee:	5b                   	pop    %rbx
  800cef:	5d                   	pop    %rbp
  800cf0:	c3                   	retq   

0000000000800cf1 <timer>:

#include "ns.h"

void
timer(envid_t ns_envid, uint32_t initial_to) {
  800cf1:	55                   	push   %rbp
  800cf2:	48 89 e5             	mov    %rsp,%rbp
  800cf5:	53                   	push   %rbx
  800cf6:	48 83 ec 28          	sub    $0x28,%rsp
  800cfa:	89 7d dc             	mov    %edi,-0x24(%rbp)
  800cfd:	89 75 d8             	mov    %esi,-0x28(%rbp)
    int r;
    uint32_t stop = sys_time_msec() + initial_to;
  800d00:	48 b8 73 2a 80 00 00 	movabs $0x802a73,%rax
  800d07:	00 00 00 
  800d0a:	ff d0                	callq  *%rax
  800d0c:	8b 55 d8             	mov    -0x28(%rbp),%edx
  800d0f:	01 d0                	add    %edx,%eax
  800d11:	89 45 ec             	mov    %eax,-0x14(%rbp)

    binaryname = "ns_timer";
  800d14:	48 b8 00 80 82 00 00 	movabs $0x828000,%rax
  800d1b:	00 00 00 
  800d1e:	48 bb 90 0c 82 00 00 	movabs $0x820c90,%rbx
  800d25:	00 00 00 
  800d28:	48 89 18             	mov    %rbx,(%rax)

    while (1) {
        while((r = sys_time_msec()) < stop && r >= 0) {
  800d2b:	eb 0c                	jmp    800d39 <timer+0x48>
            sys_yield();
  800d2d:	48 b8 c8 27 80 00 00 	movabs $0x8027c8,%rax
  800d34:	00 00 00 
  800d37:	ff d0                	callq  *%rax
    uint32_t stop = sys_time_msec() + initial_to;

    binaryname = "ns_timer";

    while (1) {
        while((r = sys_time_msec()) < stop && r >= 0) {
  800d39:	48 b8 73 2a 80 00 00 	movabs $0x802a73,%rax
  800d40:	00 00 00 
  800d43:	ff d0                	callq  *%rax
  800d45:	89 45 e8             	mov    %eax,-0x18(%rbp)
  800d48:	8b 45 e8             	mov    -0x18(%rbp),%eax
  800d4b:	3b 45 ec             	cmp    -0x14(%rbp),%eax
  800d4e:	73 06                	jae    800d56 <timer+0x65>
  800d50:	83 7d e8 00          	cmpl   $0x0,-0x18(%rbp)
  800d54:	79 d7                	jns    800d2d <timer+0x3c>
            sys_yield();
        }
        if (r < 0)
  800d56:	83 7d e8 00          	cmpl   $0x0,-0x18(%rbp)
  800d5a:	79 30                	jns    800d8c <timer+0x9b>
            panic("sys_time_msec: %e", r);
  800d5c:	8b 45 e8             	mov    -0x18(%rbp),%eax
  800d5f:	89 c1                	mov    %eax,%ecx
  800d61:	48 ba 99 0c 82 00 00 	movabs $0x820c99,%rdx
  800d68:	00 00 00 
  800d6b:	be 10 00 00 00       	mov    $0x10,%esi
  800d70:	48 bf ab 0c 82 00 00 	movabs $0x820cab,%rdi
  800d77:	00 00 00 
  800d7a:	b8 00 00 00 00       	mov    $0x0,%eax
  800d7f:	49 b8 e9 10 80 00 00 	movabs $0x8010e9,%r8
  800d86:	00 00 00 
  800d89:	41 ff d0             	callq  *%r8

        ipc_send(ns_envid, NSREQ_TIMER, 0, 0);
  800d8c:	8b 45 dc             	mov    -0x24(%rbp),%eax
  800d8f:	b9 00 00 00 00       	mov    $0x0,%ecx
  800d94:	ba 00 00 00 00       	mov    $0x0,%edx
  800d99:	be 0c 00 00 00       	mov    $0xc,%esi
  800d9e:	89 c7                	mov    %eax,%edi
  800da0:	48 b8 bc 32 80 00 00 	movabs $0x8032bc,%rax
  800da7:	00 00 00 
  800daa:	ff d0                	callq  *%rax

        while (1) {
            uint32_t to, whom;
            to = ipc_recv((int32_t *) &whom, 0, 0);
  800dac:	48 8d 45 e0          	lea    -0x20(%rbp),%rax
  800db0:	ba 00 00 00 00       	mov    $0x0,%edx
  800db5:	be 00 00 00 00       	mov    $0x0,%esi
  800dba:	48 89 c7             	mov    %rax,%rdi
  800dbd:	48 b8 fb 31 80 00 00 	movabs $0x8031fb,%rax
  800dc4:	00 00 00 
  800dc7:	ff d0                	callq  *%rax
  800dc9:	89 45 e4             	mov    %eax,-0x1c(%rbp)

            if (whom != ns_envid) {
  800dcc:	8b 55 dc             	mov    -0x24(%rbp),%edx
  800dcf:	8b 45 e0             	mov    -0x20(%rbp),%eax
  800dd2:	39 c2                	cmp    %eax,%edx
  800dd4:	74 22                	je     800df8 <timer+0x107>
                cprintf("NS TIMER: timer thread got IPC message from env %x not NS\n", whom);
  800dd6:	8b 45 e0             	mov    -0x20(%rbp),%eax
  800dd9:	89 c6                	mov    %eax,%esi
  800ddb:	48 bf b8 0c 82 00 00 	movabs $0x820cb8,%rdi
  800de2:	00 00 00 
  800de5:	b8 00 00 00 00       	mov    $0x0,%eax
  800dea:	48 ba 22 13 80 00 00 	movabs $0x801322,%rdx
  800df1:	00 00 00 
  800df4:	ff d2                	callq  *%rdx
                continue;
            }

            stop = sys_time_msec() + to;
            break;
        }
  800df6:	eb b4                	jmp    800dac <timer+0xbb>
            if (whom != ns_envid) {
                cprintf("NS TIMER: timer thread got IPC message from env %x not NS\n", whom);
                continue;
            }

            stop = sys_time_msec() + to;
  800df8:	48 b8 73 2a 80 00 00 	movabs $0x802a73,%rax
  800dff:	00 00 00 
  800e02:	ff d0                	callq  *%rax
  800e04:	8b 55 e4             	mov    -0x1c(%rbp),%edx
  800e07:	01 d0                	add    %edx,%eax
  800e09:	89 45 ec             	mov    %eax,-0x14(%rbp)
            break;
        }
    }
  800e0c:	90                   	nop
    uint32_t stop = sys_time_msec() + initial_to;

    binaryname = "ns_timer";

    while (1) {
        while((r = sys_time_msec()) < stop && r >= 0) {
  800e0d:	e9 27 ff ff ff       	jmpq   800d39 <timer+0x48>

0000000000800e12 <input>:

extern union Nsipc nsipcbuf;

    void
input(envid_t ns_envid)
{
  800e12:	55                   	push   %rbp
  800e13:	48 89 e5             	mov    %rsp,%rbp
  800e16:	53                   	push   %rbx
  800e17:	48 83 ec 28          	sub    $0x28,%rsp
  800e1b:	89 7d dc             	mov    %edi,-0x24(%rbp)
    binaryname = "ns_input";
  800e1e:	48 b8 00 80 82 00 00 	movabs $0x828000,%rax
  800e25:	00 00 00 
  800e28:	48 bb f3 0c 82 00 00 	movabs $0x820cf3,%rbx
  800e2f:	00 00 00 
  800e32:	48 89 18             	mov    %rbx,(%rax)

    while (1) {
        int r;
        if ((r = sys_page_alloc(0, &nsipcbuf, PTE_P|PTE_U|PTE_W)) < 0)
  800e35:	ba 07 00 00 00       	mov    $0x7,%edx
  800e3a:	48 be 00 a0 b5 00 00 	movabs $0xb5a000,%rsi
  800e41:	00 00 00 
  800e44:	bf 00 00 00 00       	mov    $0x0,%edi
  800e49:	48 b8 06 28 80 00 00 	movabs $0x802806,%rax
  800e50:	00 00 00 
  800e53:	ff d0                	callq  *%rax
  800e55:	89 45 ec             	mov    %eax,-0x14(%rbp)
  800e58:	83 7d ec 00          	cmpl   $0x0,-0x14(%rbp)
  800e5c:	79 30                	jns    800e8e <input+0x7c>
            panic("sys_page_alloc: %e", r);
  800e5e:	8b 45 ec             	mov    -0x14(%rbp),%eax
  800e61:	89 c1                	mov    %eax,%ecx
  800e63:	48 ba fc 0c 82 00 00 	movabs $0x820cfc,%rdx
  800e6a:	00 00 00 
  800e6d:	be 0e 00 00 00       	mov    $0xe,%esi
  800e72:	48 bf 0f 0d 82 00 00 	movabs $0x820d0f,%rdi
  800e79:	00 00 00 
  800e7c:	b8 00 00 00 00       	mov    $0x0,%eax
  800e81:	49 b8 e9 10 80 00 00 	movabs $0x8010e9,%r8
  800e88:	00 00 00 
  800e8b:	41 ff d0             	callq  *%r8
        r = sys_net_receive(nsipcbuf.pkt.jp_data, 1518);
  800e8e:	be ee 05 00 00       	mov    $0x5ee,%esi
  800e93:	48 bf 04 a0 b5 00 00 	movabs $0xb5a004,%rdi
  800e9a:	00 00 00 
  800e9d:	48 b8 f9 2a 80 00 00 	movabs $0x802af9,%rax
  800ea4:	00 00 00 
  800ea7:	ff d0                	callq  *%rax
  800ea9:	89 45 ec             	mov    %eax,-0x14(%rbp)
        if (r == 0) {
  800eac:	83 7d ec 00          	cmpl   $0x0,-0x14(%rbp)
  800eb0:	75 0e                	jne    800ec0 <input+0xae>
            sys_yield();
  800eb2:	48 b8 c8 27 80 00 00 	movabs $0x8027c8,%rax
  800eb9:	00 00 00 
  800ebc:	ff d0                	callq  *%rax
  800ebe:	eb 67                	jmp    800f27 <input+0x115>
        } else if (r < 0) {
  800ec0:	83 7d ec 00          	cmpl   $0x0,-0x14(%rbp)
  800ec4:	79 22                	jns    800ee8 <input+0xd6>
            cprintf("Failed to receive packet: %e\n", r);
  800ec6:	8b 45 ec             	mov    -0x14(%rbp),%eax
  800ec9:	89 c6                	mov    %eax,%esi
  800ecb:	48 bf 1b 0d 82 00 00 	movabs $0x820d1b,%rdi
  800ed2:	00 00 00 
  800ed5:	b8 00 00 00 00       	mov    $0x0,%eax
  800eda:	48 ba 22 13 80 00 00 	movabs $0x801322,%rdx
  800ee1:	00 00 00 
  800ee4:	ff d2                	callq  *%rdx
  800ee6:	eb 3f                	jmp    800f27 <input+0x115>
        } else if (r > 0) {
  800ee8:	83 7d ec 00          	cmpl   $0x0,-0x14(%rbp)
  800eec:	7e 39                	jle    800f27 <input+0x115>
            nsipcbuf.pkt.jp_len = r;
  800eee:	48 b8 00 a0 b5 00 00 	movabs $0xb5a000,%rax
  800ef5:	00 00 00 
  800ef8:	8b 55 ec             	mov    -0x14(%rbp),%edx
  800efb:	89 10                	mov    %edx,(%rax)
            ipc_send(ns_envid, NSREQ_INPUT, &nsipcbuf, PTE_U|PTE_P);
  800efd:	8b 45 dc             	mov    -0x24(%rbp),%eax
  800f00:	b9 05 00 00 00       	mov    $0x5,%ecx
  800f05:	48 ba 00 a0 b5 00 00 	movabs $0xb5a000,%rdx
  800f0c:	00 00 00 
  800f0f:	be 0a 00 00 00       	mov    $0xa,%esi
  800f14:	89 c7                	mov    %eax,%edi
  800f16:	48 b8 bc 32 80 00 00 	movabs $0x8032bc,%rax
  800f1d:	00 00 00 
  800f20:	ff d0                	callq  *%rax
        }
    }
  800f22:	e9 0e ff ff ff       	jmpq   800e35 <input+0x23>
  800f27:	e9 09 ff ff ff       	jmpq   800e35 <input+0x23>

0000000000800f2c <output>:

extern union Nsipc nsipcbuf;

    void
output(envid_t ns_envid)
{
  800f2c:	55                   	push   %rbp
  800f2d:	48 89 e5             	mov    %rsp,%rbp
  800f30:	53                   	push   %rbx
  800f31:	48 83 ec 28          	sub    $0x28,%rsp
  800f35:	89 7d dc             	mov    %edi,-0x24(%rbp)
    binaryname = "ns_output";
  800f38:	48 b8 00 80 82 00 00 	movabs $0x828000,%rax
  800f3f:	00 00 00 
  800f42:	48 bb 40 0d 82 00 00 	movabs $0x820d40,%rbx
  800f49:	00 00 00 
  800f4c:	48 89 18             	mov    %rbx,(%rax)

    int r;

    while (1) {
        int32_t req, whom;
        req = ipc_recv(&whom, &nsipcbuf, NULL);
  800f4f:	48 8d 45 e4          	lea    -0x1c(%rbp),%rax
  800f53:	ba 00 00 00 00       	mov    $0x0,%edx
  800f58:	48 be 00 a0 b5 00 00 	movabs $0xb5a000,%rsi
  800f5f:	00 00 00 
  800f62:	48 89 c7             	mov    %rax,%rdi
  800f65:	48 b8 fb 31 80 00 00 	movabs $0x8031fb,%rax
  800f6c:	00 00 00 
  800f6f:	ff d0                	callq  *%rax
  800f71:	89 45 ec             	mov    %eax,-0x14(%rbp)
        assert(whom == ns_envid);
  800f74:	8b 45 e4             	mov    -0x1c(%rbp),%eax
  800f77:	3b 45 dc             	cmp    -0x24(%rbp),%eax
  800f7a:	74 35                	je     800fb1 <output+0x85>
  800f7c:	48 b9 4a 0d 82 00 00 	movabs $0x820d4a,%rcx
  800f83:	00 00 00 
  800f86:	48 ba 5b 0d 82 00 00 	movabs $0x820d5b,%rdx
  800f8d:	00 00 00 
  800f90:	be 11 00 00 00       	mov    $0x11,%esi
  800f95:	48 bf 70 0d 82 00 00 	movabs $0x820d70,%rdi
  800f9c:	00 00 00 
  800f9f:	b8 00 00 00 00       	mov    $0x0,%eax
  800fa4:	49 b8 e9 10 80 00 00 	movabs $0x8010e9,%r8
  800fab:	00 00 00 
  800fae:	41 ff d0             	callq  *%r8
        assert(req == NSREQ_OUTPUT);
  800fb1:	83 7d ec 0b          	cmpl   $0xb,-0x14(%rbp)
  800fb5:	74 35                	je     800fec <output+0xc0>
  800fb7:	48 b9 7d 0d 82 00 00 	movabs $0x820d7d,%rcx
  800fbe:	00 00 00 
  800fc1:	48 ba 5b 0d 82 00 00 	movabs $0x820d5b,%rdx
  800fc8:	00 00 00 
  800fcb:	be 12 00 00 00       	mov    $0x12,%esi
  800fd0:	48 bf 70 0d 82 00 00 	movabs $0x820d70,%rdi
  800fd7:	00 00 00 
  800fda:	b8 00 00 00 00       	mov    $0x0,%eax
  800fdf:	49 b8 e9 10 80 00 00 	movabs $0x8010e9,%r8
  800fe6:	00 00 00 
  800fe9:	41 ff d0             	callq  *%r8
        if ((r = sys_net_transmit(nsipcbuf.pkt.jp_data, nsipcbuf.pkt.jp_len)) < 0)
  800fec:	48 b8 00 a0 b5 00 00 	movabs $0xb5a000,%rax
  800ff3:	00 00 00 
  800ff6:	8b 00                	mov    (%rax),%eax
  800ff8:	89 c6                	mov    %eax,%esi
  800ffa:	48 bf 04 a0 b5 00 00 	movabs $0xb5a004,%rdi
  801001:	00 00 00 
  801004:	48 b8 b1 2a 80 00 00 	movabs $0x802ab1,%rax
  80100b:	00 00 00 
  80100e:	ff d0                	callq  *%rax
  801010:	89 45 e8             	mov    %eax,-0x18(%rbp)
  801013:	83 7d e8 00          	cmpl   $0x0,-0x18(%rbp)
  801017:	79 25                	jns    80103e <output+0x112>
            cprintf("Failed to transmit packet: %e\n", r);
  801019:	8b 45 e8             	mov    -0x18(%rbp),%eax
  80101c:	89 c6                	mov    %eax,%esi
  80101e:	48 bf 98 0d 82 00 00 	movabs $0x820d98,%rdi
  801025:	00 00 00 
  801028:	b8 00 00 00 00       	mov    $0x0,%eax
  80102d:	48 ba 22 13 80 00 00 	movabs $0x801322,%rdx
  801034:	00 00 00 
  801037:	ff d2                	callq  *%rdx
    }
  801039:	e9 11 ff ff ff       	jmpq   800f4f <output+0x23>
  80103e:	e9 0c ff ff ff       	jmpq   800f4f <output+0x23>

0000000000801043 <libmain>:
const volatile struct Env *thisenv;
const char *binaryname = "<unknown>";

void
libmain(int argc, char **argv)
{
  801043:	55                   	push   %rbp
  801044:	48 89 e5             	mov    %rsp,%rbp
  801047:	48 83 ec 10          	sub    $0x10,%rsp
  80104b:	89 7d fc             	mov    %edi,-0x4(%rbp)
  80104e:	48 89 75 f0          	mov    %rsi,-0x10(%rbp)
	// set thisenv to point at our Env structure in envs[].

	thisenv = &envs[ENVX(sys_getenvid())];
  801052:	48 b8 8a 27 80 00 00 	movabs $0x80278a,%rax
  801059:	00 00 00 
  80105c:	ff d0                	callq  *%rax
  80105e:	25 ff 03 00 00       	and    $0x3ff,%eax
  801063:	48 98                	cltq   
  801065:	48 69 d0 68 01 00 00 	imul   $0x168,%rax,%rdx
  80106c:	48 b8 00 00 80 00 80 	movabs $0x8000800000,%rax
  801073:	00 00 00 
  801076:	48 01 c2             	add    %rax,%rdx
  801079:	48 b8 70 75 b5 00 00 	movabs $0xb57570,%rax
  801080:	00 00 00 
  801083:	48 89 10             	mov    %rdx,(%rax)


	// save the name of the program so that panic() can use it
	if (argc > 0)
  801086:	83 7d fc 00          	cmpl   $0x0,-0x4(%rbp)
  80108a:	7e 14                	jle    8010a0 <libmain+0x5d>
		binaryname = argv[0];
  80108c:	48 8b 45 f0          	mov    -0x10(%rbp),%rax
  801090:	48 8b 10             	mov    (%rax),%rdx
  801093:	48 b8 00 80 82 00 00 	movabs $0x828000,%rax
  80109a:	00 00 00 
  80109d:	48 89 10             	mov    %rdx,(%rax)

	// call user main routine
	umain(argc, argv);
  8010a0:	48 8b 55 f0          	mov    -0x10(%rbp),%rdx
  8010a4:	8b 45 fc             	mov    -0x4(%rbp),%eax
  8010a7:	48 89 d6             	mov    %rdx,%rsi
  8010aa:	89 c7                	mov    %eax,%edi
  8010ac:	48 b8 08 0b 80 00 00 	movabs $0x800b08,%rax
  8010b3:	00 00 00 
  8010b6:	ff d0                	callq  *%rax

	// exit gracefully
	exit();
  8010b8:	48 b8 c6 10 80 00 00 	movabs $0x8010c6,%rax
  8010bf:	00 00 00 
  8010c2:	ff d0                	callq  *%rax
}
  8010c4:	c9                   	leaveq 
  8010c5:	c3                   	retq   

00000000008010c6 <exit>:

#include <inc/lib.h>

void
exit(void)
{
  8010c6:	55                   	push   %rbp
  8010c7:	48 89 e5             	mov    %rsp,%rbp

	close_all();
  8010ca:	48 b8 7b 38 80 00 00 	movabs $0x80387b,%rax
  8010d1:	00 00 00 
  8010d4:	ff d0                	callq  *%rax

	sys_env_destroy(0);
  8010d6:	bf 00 00 00 00       	mov    $0x0,%edi
  8010db:	48 b8 46 27 80 00 00 	movabs $0x802746,%rax
  8010e2:	00 00 00 
  8010e5:	ff d0                	callq  *%rax
}
  8010e7:	5d                   	pop    %rbp
  8010e8:	c3                   	retq   

00000000008010e9 <_panic>:
 * It prints "panic: <message>", then causes a breakpoint exception,
 * which causes JOS to enter the JOS kernel monitor.
 */
void
_panic(const char *file, int line, const char *fmt, ...)
{
  8010e9:	55                   	push   %rbp
  8010ea:	48 89 e5             	mov    %rsp,%rbp
  8010ed:	53                   	push   %rbx
  8010ee:	48 81 ec f8 00 00 00 	sub    $0xf8,%rsp
  8010f5:	48 89 bd 18 ff ff ff 	mov    %rdi,-0xe8(%rbp)
  8010fc:	89 b5 14 ff ff ff    	mov    %esi,-0xec(%rbp)
  801102:	48 89 8d 58 ff ff ff 	mov    %rcx,-0xa8(%rbp)
  801109:	4c 89 85 60 ff ff ff 	mov    %r8,-0xa0(%rbp)
  801110:	4c 89 8d 68 ff ff ff 	mov    %r9,-0x98(%rbp)
  801117:	84 c0                	test   %al,%al
  801119:	74 23                	je     80113e <_panic+0x55>
  80111b:	0f 29 85 70 ff ff ff 	movaps %xmm0,-0x90(%rbp)
  801122:	0f 29 4d 80          	movaps %xmm1,-0x80(%rbp)
  801126:	0f 29 55 90          	movaps %xmm2,-0x70(%rbp)
  80112a:	0f 29 5d a0          	movaps %xmm3,-0x60(%rbp)
  80112e:	0f 29 65 b0          	movaps %xmm4,-0x50(%rbp)
  801132:	0f 29 6d c0          	movaps %xmm5,-0x40(%rbp)
  801136:	0f 29 75 d0          	movaps %xmm6,-0x30(%rbp)
  80113a:	0f 29 7d e0          	movaps %xmm7,-0x20(%rbp)
  80113e:	48 89 95 08 ff ff ff 	mov    %rdx,-0xf8(%rbp)
	va_list ap;

	va_start(ap, fmt);
  801145:	c7 85 28 ff ff ff 18 	movl   $0x18,-0xd8(%rbp)
  80114c:	00 00 00 
  80114f:	c7 85 2c ff ff ff 30 	movl   $0x30,-0xd4(%rbp)
  801156:	00 00 00 
  801159:	48 8d 45 10          	lea    0x10(%rbp),%rax
  80115d:	48 89 85 30 ff ff ff 	mov    %rax,-0xd0(%rbp)
  801164:	48 8d 85 40 ff ff ff 	lea    -0xc0(%rbp),%rax
  80116b:	48 89 85 38 ff ff ff 	mov    %rax,-0xc8(%rbp)

	// Print the panic message
	cprintf("[%08x] user panic in %s at %s:%d: ",
  801172:	48 b8 00 80 82 00 00 	movabs $0x828000,%rax
  801179:	00 00 00 
  80117c:	48 8b 18             	mov    (%rax),%rbx
  80117f:	48 b8 8a 27 80 00 00 	movabs $0x80278a,%rax
  801186:	00 00 00 
  801189:	ff d0                	callq  *%rax
  80118b:	8b 8d 14 ff ff ff    	mov    -0xec(%rbp),%ecx
  801191:	48 8b 95 18 ff ff ff 	mov    -0xe8(%rbp),%rdx
  801198:	41 89 c8             	mov    %ecx,%r8d
  80119b:	48 89 d1             	mov    %rdx,%rcx
  80119e:	48 89 da             	mov    %rbx,%rdx
  8011a1:	89 c6                	mov    %eax,%esi
  8011a3:	48 bf c8 0d 82 00 00 	movabs $0x820dc8,%rdi
  8011aa:	00 00 00 
  8011ad:	b8 00 00 00 00       	mov    $0x0,%eax
  8011b2:	49 b9 22 13 80 00 00 	movabs $0x801322,%r9
  8011b9:	00 00 00 
  8011bc:	41 ff d1             	callq  *%r9
		sys_getenvid(), binaryname, file, line);
	vcprintf(fmt, ap);
  8011bf:	48 8d 95 28 ff ff ff 	lea    -0xd8(%rbp),%rdx
  8011c6:	48 8b 85 08 ff ff ff 	mov    -0xf8(%rbp),%rax
  8011cd:	48 89 d6             	mov    %rdx,%rsi
  8011d0:	48 89 c7             	mov    %rax,%rdi
  8011d3:	48 b8 76 12 80 00 00 	movabs $0x801276,%rax
  8011da:	00 00 00 
  8011dd:	ff d0                	callq  *%rax
	cprintf("\n");
  8011df:	48 bf eb 0d 82 00 00 	movabs $0x820deb,%rdi
  8011e6:	00 00 00 
  8011e9:	b8 00 00 00 00       	mov    $0x0,%eax
  8011ee:	48 ba 22 13 80 00 00 	movabs $0x801322,%rdx
  8011f5:	00 00 00 
  8011f8:	ff d2                	callq  *%rdx

	// Cause a breakpoint exception
	while (1)
		asm volatile("int3");
  8011fa:	cc                   	int3   
  8011fb:	eb fd                	jmp    8011fa <_panic+0x111>

00000000008011fd <putch>:
};


    static void
putch(int ch, struct printbuf *b)
{
  8011fd:	55                   	push   %rbp
  8011fe:	48 89 e5             	mov    %rsp,%rbp
  801201:	48 83 ec 10          	sub    $0x10,%rsp
  801205:	89 7d fc             	mov    %edi,-0x4(%rbp)
  801208:	48 89 75 f0          	mov    %rsi,-0x10(%rbp)
    b->buf[b->idx++] = ch;
  80120c:	48 8b 45 f0          	mov    -0x10(%rbp),%rax
  801210:	8b 00                	mov    (%rax),%eax
  801212:	8d 48 01             	lea    0x1(%rax),%ecx
  801215:	48 8b 55 f0          	mov    -0x10(%rbp),%rdx
  801219:	89 0a                	mov    %ecx,(%rdx)
  80121b:	8b 55 fc             	mov    -0x4(%rbp),%edx
  80121e:	89 d1                	mov    %edx,%ecx
  801220:	48 8b 55 f0          	mov    -0x10(%rbp),%rdx
  801224:	48 98                	cltq   
  801226:	88 4c 02 08          	mov    %cl,0x8(%rdx,%rax,1)
    if (b->idx == 256-1) {
  80122a:	48 8b 45 f0          	mov    -0x10(%rbp),%rax
  80122e:	8b 00                	mov    (%rax),%eax
  801230:	3d ff 00 00 00       	cmp    $0xff,%eax
  801235:	75 2c                	jne    801263 <putch+0x66>
        sys_cputs(b->buf, b->idx);
  801237:	48 8b 45 f0          	mov    -0x10(%rbp),%rax
  80123b:	8b 00                	mov    (%rax),%eax
  80123d:	48 98                	cltq   
  80123f:	48 8b 55 f0          	mov    -0x10(%rbp),%rdx
  801243:	48 83 c2 08          	add    $0x8,%rdx
  801247:	48 89 c6             	mov    %rax,%rsi
  80124a:	48 89 d7             	mov    %rdx,%rdi
  80124d:	48 b8 be 26 80 00 00 	movabs $0x8026be,%rax
  801254:	00 00 00 
  801257:	ff d0                	callq  *%rax
        b->idx = 0;
  801259:	48 8b 45 f0          	mov    -0x10(%rbp),%rax
  80125d:	c7 00 00 00 00 00    	movl   $0x0,(%rax)
    }
    b->cnt++;
  801263:	48 8b 45 f0          	mov    -0x10(%rbp),%rax
  801267:	8b 40 04             	mov    0x4(%rax),%eax
  80126a:	8d 50 01             	lea    0x1(%rax),%edx
  80126d:	48 8b 45 f0          	mov    -0x10(%rbp),%rax
  801271:	89 50 04             	mov    %edx,0x4(%rax)
}
  801274:	c9                   	leaveq 
  801275:	c3                   	retq   

0000000000801276 <vcprintf>:

    int
vcprintf(const char *fmt, va_list ap)
{
  801276:	55                   	push   %rbp
  801277:	48 89 e5             	mov    %rsp,%rbp
  80127a:	48 81 ec 40 01 00 00 	sub    $0x140,%rsp
  801281:	48 89 bd c8 fe ff ff 	mov    %rdi,-0x138(%rbp)
  801288:	48 89 b5 c0 fe ff ff 	mov    %rsi,-0x140(%rbp)
    struct printbuf b;
    va_list aq;
    va_copy(aq,ap);
  80128f:	48 8d 85 d8 fe ff ff 	lea    -0x128(%rbp),%rax
  801296:	48 8b 95 c0 fe ff ff 	mov    -0x140(%rbp),%rdx
  80129d:	48 8b 0a             	mov    (%rdx),%rcx
  8012a0:	48 89 08             	mov    %rcx,(%rax)
  8012a3:	48 8b 4a 08          	mov    0x8(%rdx),%rcx
  8012a7:	48 89 48 08          	mov    %rcx,0x8(%rax)
  8012ab:	48 8b 52 10          	mov    0x10(%rdx),%rdx
  8012af:	48 89 50 10          	mov    %rdx,0x10(%rax)
    b.idx = 0;
  8012b3:	c7 85 f0 fe ff ff 00 	movl   $0x0,-0x110(%rbp)
  8012ba:	00 00 00 
    b.cnt = 0;
  8012bd:	c7 85 f4 fe ff ff 00 	movl   $0x0,-0x10c(%rbp)
  8012c4:	00 00 00 
    vprintfmt((void*)putch, &b, fmt, aq);
  8012c7:	48 8d 8d d8 fe ff ff 	lea    -0x128(%rbp),%rcx
  8012ce:	48 8b 95 c8 fe ff ff 	mov    -0x138(%rbp),%rdx
  8012d5:	48 8d 85 f0 fe ff ff 	lea    -0x110(%rbp),%rax
  8012dc:	48 89 c6             	mov    %rax,%rsi
  8012df:	48 bf fd 11 80 00 00 	movabs $0x8011fd,%rdi
  8012e6:	00 00 00 
  8012e9:	48 b8 d5 16 80 00 00 	movabs $0x8016d5,%rax
  8012f0:	00 00 00 
  8012f3:	ff d0                	callq  *%rax
    sys_cputs(b.buf, b.idx);
  8012f5:	8b 85 f0 fe ff ff    	mov    -0x110(%rbp),%eax
  8012fb:	48 98                	cltq   
  8012fd:	48 8d 95 f0 fe ff ff 	lea    -0x110(%rbp),%rdx
  801304:	48 83 c2 08          	add    $0x8,%rdx
  801308:	48 89 c6             	mov    %rax,%rsi
  80130b:	48 89 d7             	mov    %rdx,%rdi
  80130e:	48 b8 be 26 80 00 00 	movabs $0x8026be,%rax
  801315:	00 00 00 
  801318:	ff d0                	callq  *%rax
    va_end(aq);

    return b.cnt;
  80131a:	8b 85 f4 fe ff ff    	mov    -0x10c(%rbp),%eax
}
  801320:	c9                   	leaveq 
  801321:	c3                   	retq   

0000000000801322 <cprintf>:

    int
cprintf(const char *fmt, ...)
{
  801322:	55                   	push   %rbp
  801323:	48 89 e5             	mov    %rsp,%rbp
  801326:	48 81 ec 00 01 00 00 	sub    $0x100,%rsp
  80132d:	48 89 b5 58 ff ff ff 	mov    %rsi,-0xa8(%rbp)
  801334:	48 89 95 60 ff ff ff 	mov    %rdx,-0xa0(%rbp)
  80133b:	48 89 8d 68 ff ff ff 	mov    %rcx,-0x98(%rbp)
  801342:	4c 89 85 70 ff ff ff 	mov    %r8,-0x90(%rbp)
  801349:	4c 89 8d 78 ff ff ff 	mov    %r9,-0x88(%rbp)
  801350:	84 c0                	test   %al,%al
  801352:	74 20                	je     801374 <cprintf+0x52>
  801354:	0f 29 45 80          	movaps %xmm0,-0x80(%rbp)
  801358:	0f 29 4d 90          	movaps %xmm1,-0x70(%rbp)
  80135c:	0f 29 55 a0          	movaps %xmm2,-0x60(%rbp)
  801360:	0f 29 5d b0          	movaps %xmm3,-0x50(%rbp)
  801364:	0f 29 65 c0          	movaps %xmm4,-0x40(%rbp)
  801368:	0f 29 6d d0          	movaps %xmm5,-0x30(%rbp)
  80136c:	0f 29 75 e0          	movaps %xmm6,-0x20(%rbp)
  801370:	0f 29 7d f0          	movaps %xmm7,-0x10(%rbp)
  801374:	48 89 bd 08 ff ff ff 	mov    %rdi,-0xf8(%rbp)
    va_list ap;
    int cnt;
    va_list aq;
    va_start(ap, fmt);
  80137b:	c7 85 30 ff ff ff 08 	movl   $0x8,-0xd0(%rbp)
  801382:	00 00 00 
  801385:	c7 85 34 ff ff ff 30 	movl   $0x30,-0xcc(%rbp)
  80138c:	00 00 00 
  80138f:	48 8d 45 10          	lea    0x10(%rbp),%rax
  801393:	48 89 85 38 ff ff ff 	mov    %rax,-0xc8(%rbp)
  80139a:	48 8d 85 50 ff ff ff 	lea    -0xb0(%rbp),%rax
  8013a1:	48 89 85 40 ff ff ff 	mov    %rax,-0xc0(%rbp)
    va_copy(aq,ap);
  8013a8:	48 8d 85 18 ff ff ff 	lea    -0xe8(%rbp),%rax
  8013af:	48 8d 95 30 ff ff ff 	lea    -0xd0(%rbp),%rdx
  8013b6:	48 8b 0a             	mov    (%rdx),%rcx
  8013b9:	48 89 08             	mov    %rcx,(%rax)
  8013bc:	48 8b 4a 08          	mov    0x8(%rdx),%rcx
  8013c0:	48 89 48 08          	mov    %rcx,0x8(%rax)
  8013c4:	48 8b 52 10          	mov    0x10(%rdx),%rdx
  8013c8:	48 89 50 10          	mov    %rdx,0x10(%rax)
    cnt = vcprintf(fmt, aq);
  8013cc:	48 8d 95 18 ff ff ff 	lea    -0xe8(%rbp),%rdx
  8013d3:	48 8b 85 08 ff ff ff 	mov    -0xf8(%rbp),%rax
  8013da:	48 89 d6             	mov    %rdx,%rsi
  8013dd:	48 89 c7             	mov    %rax,%rdi
  8013e0:	48 b8 76 12 80 00 00 	movabs $0x801276,%rax
  8013e7:	00 00 00 
  8013ea:	ff d0                	callq  *%rax
  8013ec:	89 85 4c ff ff ff    	mov    %eax,-0xb4(%rbp)
    va_end(aq);

    return cnt;
  8013f2:	8b 85 4c ff ff ff    	mov    -0xb4(%rbp),%eax
}
  8013f8:	c9                   	leaveq 
  8013f9:	c3                   	retq   

00000000008013fa <printnum>:
 * using specified putch function and associated pointer putdat.
 */
static void
printnum(void (*putch)(int, void*), void *putdat,
	 unsigned long long num, unsigned base, int width, int padc)
{
  8013fa:	55                   	push   %rbp
  8013fb:	48 89 e5             	mov    %rsp,%rbp
  8013fe:	53                   	push   %rbx
  8013ff:	48 83 ec 38          	sub    $0x38,%rsp
  801403:	48 89 7d e8          	mov    %rdi,-0x18(%rbp)
  801407:	48 89 75 e0          	mov    %rsi,-0x20(%rbp)
  80140b:	48 89 55 d8          	mov    %rdx,-0x28(%rbp)
  80140f:	89 4d d4             	mov    %ecx,-0x2c(%rbp)
  801412:	44 89 45 d0          	mov    %r8d,-0x30(%rbp)
  801416:	44 89 4d cc          	mov    %r9d,-0x34(%rbp)
	// first recursively print all preceding (more significant) digits
	if (num >= base) {
  80141a:	8b 45 d4             	mov    -0x2c(%rbp),%eax
  80141d:	48 3b 45 d8          	cmp    -0x28(%rbp),%rax
  801421:	77 3b                	ja     80145e <printnum+0x64>
		printnum(putch, putdat, num / base, base, width - 1, padc);
  801423:	8b 45 d0             	mov    -0x30(%rbp),%eax
  801426:	44 8d 40 ff          	lea    -0x1(%rax),%r8d
  80142a:	8b 5d d4             	mov    -0x2c(%rbp),%ebx
  80142d:	48 8b 45 d8          	mov    -0x28(%rbp),%rax
  801431:	ba 00 00 00 00       	mov    $0x0,%edx
  801436:	48 f7 f3             	div    %rbx
  801439:	48 89 c2             	mov    %rax,%rdx
  80143c:	8b 7d cc             	mov    -0x34(%rbp),%edi
  80143f:	8b 4d d4             	mov    -0x2c(%rbp),%ecx
  801442:	48 8b 75 e0          	mov    -0x20(%rbp),%rsi
  801446:	48 8b 45 e8          	mov    -0x18(%rbp),%rax
  80144a:	41 89 f9             	mov    %edi,%r9d
  80144d:	48 89 c7             	mov    %rax,%rdi
  801450:	48 b8 fa 13 80 00 00 	movabs $0x8013fa,%rax
  801457:	00 00 00 
  80145a:	ff d0                	callq  *%rax
  80145c:	eb 1e                	jmp    80147c <printnum+0x82>
	} else {
		// print any needed pad characters before first digit
		while (--width > 0)
  80145e:	eb 12                	jmp    801472 <printnum+0x78>
			putch(padc, putdat);
  801460:	48 8b 4d e0          	mov    -0x20(%rbp),%rcx
  801464:	8b 55 cc             	mov    -0x34(%rbp),%edx
  801467:	48 8b 45 e8          	mov    -0x18(%rbp),%rax
  80146b:	48 89 ce             	mov    %rcx,%rsi
  80146e:	89 d7                	mov    %edx,%edi
  801470:	ff d0                	callq  *%rax
	// first recursively print all preceding (more significant) digits
	if (num >= base) {
		printnum(putch, putdat, num / base, base, width - 1, padc);
	} else {
		// print any needed pad characters before first digit
		while (--width > 0)
  801472:	83 6d d0 01          	subl   $0x1,-0x30(%rbp)
  801476:	83 7d d0 00          	cmpl   $0x0,-0x30(%rbp)
  80147a:	7f e4                	jg     801460 <printnum+0x66>
			putch(padc, putdat);
	}

	// then print this (the least significant) digit
	putch("0123456789abcdef"[num % base], putdat);
  80147c:	8b 4d d4             	mov    -0x2c(%rbp),%ecx
  80147f:	48 8b 45 d8          	mov    -0x28(%rbp),%rax
  801483:	ba 00 00 00 00       	mov    $0x0,%edx
  801488:	48 f7 f1             	div    %rcx
  80148b:	48 89 d0             	mov    %rdx,%rax
  80148e:	48 ba f0 0f 82 00 00 	movabs $0x820ff0,%rdx
  801495:	00 00 00 
  801498:	0f b6 04 02          	movzbl (%rdx,%rax,1),%eax
  80149c:	0f be d0             	movsbl %al,%edx
  80149f:	48 8b 4d e0          	mov    -0x20(%rbp),%rcx
  8014a3:	48 8b 45 e8          	mov    -0x18(%rbp),%rax
  8014a7:	48 89 ce             	mov    %rcx,%rsi
  8014aa:	89 d7                	mov    %edx,%edi
  8014ac:	ff d0                	callq  *%rax
}
  8014ae:	48 83 c4 38          	add    $0x38,%rsp
  8014b2:	5b                   	pop    %rbx
  8014b3:	5d                   	pop    %rbp
  8014b4:	c3                   	retq   

00000000008014b5 <getuint>:

// Get an unsigned int of various possible sizes from a varargs list,
// depending on the lflag parameter.
static unsigned long long
getuint(va_list *ap, int lflag)
{
  8014b5:	55                   	push   %rbp
  8014b6:	48 89 e5             	mov    %rsp,%rbp
  8014b9:	48 83 ec 1c          	sub    $0x1c,%rsp
  8014bd:	48 89 7d e8          	mov    %rdi,-0x18(%rbp)
  8014c1:	89 75 e4             	mov    %esi,-0x1c(%rbp)
	unsigned long long x;    
	if (lflag >= 2)
  8014c4:	83 7d e4 01          	cmpl   $0x1,-0x1c(%rbp)
  8014c8:	7e 52                	jle    80151c <getuint+0x67>
		x= va_arg(*ap, unsigned long long);
  8014ca:	48 8b 45 e8          	mov    -0x18(%rbp),%rax
  8014ce:	8b 00                	mov    (%rax),%eax
  8014d0:	83 f8 30             	cmp    $0x30,%eax
  8014d3:	73 24                	jae    8014f9 <getuint+0x44>
  8014d5:	48 8b 45 e8          	mov    -0x18(%rbp),%rax
  8014d9:	48 8b 50 10          	mov    0x10(%rax),%rdx
  8014dd:	48 8b 45 e8          	mov    -0x18(%rbp),%rax
  8014e1:	8b 00                	mov    (%rax),%eax
  8014e3:	89 c0                	mov    %eax,%eax
  8014e5:	48 01 d0             	add    %rdx,%rax
  8014e8:	48 8b 55 e8          	mov    -0x18(%rbp),%rdx
  8014ec:	8b 12                	mov    (%rdx),%edx
  8014ee:	8d 4a 08             	lea    0x8(%rdx),%ecx
  8014f1:	48 8b 55 e8          	mov    -0x18(%rbp),%rdx
  8014f5:	89 0a                	mov    %ecx,(%rdx)
  8014f7:	eb 17                	jmp    801510 <getuint+0x5b>
  8014f9:	48 8b 45 e8          	mov    -0x18(%rbp),%rax
  8014fd:	48 8b 50 08          	mov    0x8(%rax),%rdx
  801501:	48 89 d0             	mov    %rdx,%rax
  801504:	48 8d 4a 08          	lea    0x8(%rdx),%rcx
  801508:	48 8b 55 e8          	mov    -0x18(%rbp),%rdx
  80150c:	48 89 4a 08          	mov    %rcx,0x8(%rdx)
  801510:	48 8b 00             	mov    (%rax),%rax
  801513:	48 89 45 f8          	mov    %rax,-0x8(%rbp)
  801517:	e9 a3 00 00 00       	jmpq   8015bf <getuint+0x10a>
	else if (lflag)
  80151c:	83 7d e4 00          	cmpl   $0x0,-0x1c(%rbp)
  801520:	74 4f                	je     801571 <getuint+0xbc>
		x= va_arg(*ap, unsigned long);
  801522:	48 8b 45 e8          	mov    -0x18(%rbp),%rax
  801526:	8b 00                	mov    (%rax),%eax
  801528:	83 f8 30             	cmp    $0x30,%eax
  80152b:	73 24                	jae    801551 <getuint+0x9c>
  80152d:	48 8b 45 e8          	mov    -0x18(%rbp),%rax
  801531:	48 8b 50 10          	mov    0x10(%rax),%rdx
  801535:	48 8b 45 e8          	mov    -0x18(%rbp),%rax
  801539:	8b 00                	mov    (%rax),%eax
  80153b:	89 c0                	mov    %eax,%eax
  80153d:	48 01 d0             	add    %rdx,%rax
  801540:	48 8b 55 e8          	mov    -0x18(%rbp),%rdx
  801544:	8b 12                	mov    (%rdx),%edx
  801546:	8d 4a 08             	lea    0x8(%rdx),%ecx
  801549:	48 8b 55 e8          	mov    -0x18(%rbp),%rdx
  80154d:	89 0a                	mov    %ecx,(%rdx)
  80154f:	eb 17                	jmp    801568 <getuint+0xb3>
  801551:	48 8b 45 e8          	mov    -0x18(%rbp),%rax
  801555:	48 8b 50 08          	mov    0x8(%rax),%rdx
  801559:	48 89 d0             	mov    %rdx,%rax
  80155c:	48 8d 4a 08          	lea    0x8(%rdx),%rcx
  801560:	48 8b 55 e8          	mov    -0x18(%rbp),%rdx
  801564:	48 89 4a 08          	mov    %rcx,0x8(%rdx)
  801568:	48 8b 00             	mov    (%rax),%rax
  80156b:	48 89 45 f8          	mov    %rax,-0x8(%rbp)
  80156f:	eb 4e                	jmp    8015bf <getuint+0x10a>
	else
		x= va_arg(*ap, unsigned int);
  801571:	48 8b 45 e8          	mov    -0x18(%rbp),%rax
  801575:	8b 00                	mov    (%rax),%eax
  801577:	83 f8 30             	cmp    $0x30,%eax
  80157a:	73 24                	jae    8015a0 <getuint+0xeb>
  80157c:	48 8b 45 e8          	mov    -0x18(%rbp),%rax
  801580:	48 8b 50 10          	mov    0x10(%rax),%rdx
  801584:	48 8b 45 e8          	mov    -0x18(%rbp),%rax
  801588:	8b 00                	mov    (%rax),%eax
  80158a:	89 c0                	mov    %eax,%eax
  80158c:	48 01 d0             	add    %rdx,%rax
  80158f:	48 8b 55 e8          	mov    -0x18(%rbp),%rdx
  801593:	8b 12                	mov    (%rdx),%edx
  801595:	8d 4a 08             	lea    0x8(%rdx),%ecx
  801598:	48 8b 55 e8          	mov    -0x18(%rbp),%rdx
  80159c:	89 0a                	mov    %ecx,(%rdx)
  80159e:	eb 17                	jmp    8015b7 <getuint+0x102>
  8015a0:	48 8b 45 e8          	mov    -0x18(%rbp),%rax
  8015a4:	48 8b 50 08          	mov    0x8(%rax),%rdx
  8015a8:	48 89 d0             	mov    %rdx,%rax
  8015ab:	48 8d 4a 08          	lea    0x8(%rdx),%rcx
  8015af:	48 8b 55 e8          	mov    -0x18(%rbp),%rdx
  8015b3:	48 89 4a 08          	mov    %rcx,0x8(%rdx)
  8015b7:	8b 00                	mov    (%rax),%eax
  8015b9:	89 c0                	mov    %eax,%eax
  8015bb:	48 89 45 f8          	mov    %rax,-0x8(%rbp)
	return x;
  8015bf:	48 8b 45 f8          	mov    -0x8(%rbp),%rax
}
  8015c3:	c9                   	leaveq 
  8015c4:	c3                   	retq   

00000000008015c5 <getint>:

// Same as getuint but signed - can't use getuint
// because of sign extension
static long long
getint(va_list *ap, int lflag)
{
  8015c5:	55                   	push   %rbp
  8015c6:	48 89 e5             	mov    %rsp,%rbp
  8015c9:	48 83 ec 1c          	sub    $0x1c,%rsp
  8015cd:	48 89 7d e8          	mov    %rdi,-0x18(%rbp)
  8015d1:	89 75 e4             	mov    %esi,-0x1c(%rbp)
	long long x;
	if (lflag >= 2)
  8015d4:	83 7d e4 01          	cmpl   $0x1,-0x1c(%rbp)
  8015d8:	7e 52                	jle    80162c <getint+0x67>
		x=va_arg(*ap, long long);
  8015da:	48 8b 45 e8          	mov    -0x18(%rbp),%rax
  8015de:	8b 00                	mov    (%rax),%eax
  8015e0:	83 f8 30             	cmp    $0x30,%eax
  8015e3:	73 24                	jae    801609 <getint+0x44>
  8015e5:	48 8b 45 e8          	mov    -0x18(%rbp),%rax
  8015e9:	48 8b 50 10          	mov    0x10(%rax),%rdx
  8015ed:	48 8b 45 e8          	mov    -0x18(%rbp),%rax
  8015f1:	8b 00                	mov    (%rax),%eax
  8015f3:	89 c0                	mov    %eax,%eax
  8015f5:	48 01 d0             	add    %rdx,%rax
  8015f8:	48 8b 55 e8          	mov    -0x18(%rbp),%rdx
  8015fc:	8b 12                	mov    (%rdx),%edx
  8015fe:	8d 4a 08             	lea    0x8(%rdx),%ecx
  801601:	48 8b 55 e8          	mov    -0x18(%rbp),%rdx
  801605:	89 0a                	mov    %ecx,(%rdx)
  801607:	eb 17                	jmp    801620 <getint+0x5b>
  801609:	48 8b 45 e8          	mov    -0x18(%rbp),%rax
  80160d:	48 8b 50 08          	mov    0x8(%rax),%rdx
  801611:	48 89 d0             	mov    %rdx,%rax
  801614:	48 8d 4a 08          	lea    0x8(%rdx),%rcx
  801618:	48 8b 55 e8          	mov    -0x18(%rbp),%rdx
  80161c:	48 89 4a 08          	mov    %rcx,0x8(%rdx)
  801620:	48 8b 00             	mov    (%rax),%rax
  801623:	48 89 45 f8          	mov    %rax,-0x8(%rbp)
  801627:	e9 a3 00 00 00       	jmpq   8016cf <getint+0x10a>
	else if (lflag)
  80162c:	83 7d e4 00          	cmpl   $0x0,-0x1c(%rbp)
  801630:	74 4f                	je     801681 <getint+0xbc>
		x=va_arg(*ap, long);
  801632:	48 8b 45 e8          	mov    -0x18(%rbp),%rax
  801636:	8b 00                	mov    (%rax),%eax
  801638:	83 f8 30             	cmp    $0x30,%eax
  80163b:	73 24                	jae    801661 <getint+0x9c>
  80163d:	48 8b 45 e8          	mov    -0x18(%rbp),%rax
  801641:	48 8b 50 10          	mov    0x10(%rax),%rdx
  801645:	48 8b 45 e8          	mov    -0x18(%rbp),%rax
  801649:	8b 00                	mov    (%rax),%eax
  80164b:	89 c0                	mov    %eax,%eax
  80164d:	48 01 d0             	add    %rdx,%rax
  801650:	48 8b 55 e8          	mov    -0x18(%rbp),%rdx
  801654:	8b 12                	mov    (%rdx),%edx
  801656:	8d 4a 08             	lea    0x8(%rdx),%ecx
  801659:	48 8b 55 e8          	mov    -0x18(%rbp),%rdx
  80165d:	89 0a                	mov    %ecx,(%rdx)
  80165f:	eb 17                	jmp    801678 <getint+0xb3>
  801661:	48 8b 45 e8          	mov    -0x18(%rbp),%rax
  801665:	48 8b 50 08          	mov    0x8(%rax),%rdx
  801669:	48 89 d0             	mov    %rdx,%rax
  80166c:	48 8d 4a 08          	lea    0x8(%rdx),%rcx
  801670:	48 8b 55 e8          	mov    -0x18(%rbp),%rdx
  801674:	48 89 4a 08          	mov    %rcx,0x8(%rdx)
  801678:	48 8b 00             	mov    (%rax),%rax
  80167b:	48 89 45 f8          	mov    %rax,-0x8(%rbp)
  80167f:	eb 4e                	jmp    8016cf <getint+0x10a>
	else
		x=va_arg(*ap, int);
  801681:	48 8b 45 e8          	mov    -0x18(%rbp),%rax
  801685:	8b 00                	mov    (%rax),%eax
  801687:	83 f8 30             	cmp    $0x30,%eax
  80168a:	73 24                	jae    8016b0 <getint+0xeb>
  80168c:	48 8b 45 e8          	mov    -0x18(%rbp),%rax
  801690:	48 8b 50 10          	mov    0x10(%rax),%rdx
  801694:	48 8b 45 e8          	mov    -0x18(%rbp),%rax
  801698:	8b 00                	mov    (%rax),%eax
  80169a:	89 c0                	mov    %eax,%eax
  80169c:	48 01 d0             	add    %rdx,%rax
  80169f:	48 8b 55 e8          	mov    -0x18(%rbp),%rdx
  8016a3:	8b 12                	mov    (%rdx),%edx
  8016a5:	8d 4a 08             	lea    0x8(%rdx),%ecx
  8016a8:	48 8b 55 e8          	mov    -0x18(%rbp),%rdx
  8016ac:	89 0a                	mov    %ecx,(%rdx)
  8016ae:	eb 17                	jmp    8016c7 <getint+0x102>
  8016b0:	48 8b 45 e8          	mov    -0x18(%rbp),%rax
  8016b4:	48 8b 50 08          	mov    0x8(%rax),%rdx
  8016b8:	48 89 d0             	mov    %rdx,%rax
  8016bb:	48 8d 4a 08          	lea    0x8(%rdx),%rcx
  8016bf:	48 8b 55 e8          	mov    -0x18(%rbp),%rdx
  8016c3:	48 89 4a 08          	mov    %rcx,0x8(%rdx)
  8016c7:	8b 00                	mov    (%rax),%eax
  8016c9:	48 98                	cltq   
  8016cb:	48 89 45 f8          	mov    %rax,-0x8(%rbp)
	return x;
  8016cf:	48 8b 45 f8          	mov    -0x8(%rbp),%rax
}
  8016d3:	c9                   	leaveq 
  8016d4:	c3                   	retq   

00000000008016d5 <vprintfmt>:
// Main function to format and print a string.
void printfmt(void (*putch)(int, void*), void *putdat, const char *fmt, ...);

void
vprintfmt(void (*putch)(int, void*), void *putdat, const char *fmt, va_list ap)
{
  8016d5:	55                   	push   %rbp
  8016d6:	48 89 e5             	mov    %rsp,%rbp
  8016d9:	41 54                	push   %r12
  8016db:	53                   	push   %rbx
  8016dc:	48 83 ec 60          	sub    $0x60,%rsp
  8016e0:	48 89 7d a8          	mov    %rdi,-0x58(%rbp)
  8016e4:	48 89 75 a0          	mov    %rsi,-0x60(%rbp)
  8016e8:	48 89 55 98          	mov    %rdx,-0x68(%rbp)
  8016ec:	48 89 4d 90          	mov    %rcx,-0x70(%rbp)
	register int ch, err;
	unsigned long long num;
	int base, lflag, width, precision, altflag;
	char padc;
	va_list aq;
	va_copy(aq,ap);
  8016f0:	48 8d 45 b8          	lea    -0x48(%rbp),%rax
  8016f4:	48 8b 55 90          	mov    -0x70(%rbp),%rdx
  8016f8:	48 8b 0a             	mov    (%rdx),%rcx
  8016fb:	48 89 08             	mov    %rcx,(%rax)
  8016fe:	48 8b 4a 08          	mov    0x8(%rdx),%rcx
  801702:	48 89 48 08          	mov    %rcx,0x8(%rax)
  801706:	48 8b 52 10          	mov    0x10(%rdx),%rdx
  80170a:	48 89 50 10          	mov    %rdx,0x10(%rax)
	while (1) {
		while ((ch = *(unsigned char *) fmt++) != '%') {
  80170e:	eb 17                	jmp    801727 <vprintfmt+0x52>
			if (ch == '\0')
  801710:	85 db                	test   %ebx,%ebx
  801712:	0f 84 cc 04 00 00    	je     801be4 <vprintfmt+0x50f>
				return;
			putch(ch, putdat);
  801718:	48 8b 55 a0          	mov    -0x60(%rbp),%rdx
  80171c:	48 8b 45 a8          	mov    -0x58(%rbp),%rax
  801720:	48 89 d6             	mov    %rdx,%rsi
  801723:	89 df                	mov    %ebx,%edi
  801725:	ff d0                	callq  *%rax
	int base, lflag, width, precision, altflag;
	char padc;
	va_list aq;
	va_copy(aq,ap);
	while (1) {
		while ((ch = *(unsigned char *) fmt++) != '%') {
  801727:	48 8b 45 98          	mov    -0x68(%rbp),%rax
  80172b:	48 8d 50 01          	lea    0x1(%rax),%rdx
  80172f:	48 89 55 98          	mov    %rdx,-0x68(%rbp)
  801733:	0f b6 00             	movzbl (%rax),%eax
  801736:	0f b6 d8             	movzbl %al,%ebx
  801739:	83 fb 25             	cmp    $0x25,%ebx
  80173c:	75 d2                	jne    801710 <vprintfmt+0x3b>
				return;
			putch(ch, putdat);
		}

		// Process a %-escape sequence
		padc = ' ';
  80173e:	c6 45 d3 20          	movb   $0x20,-0x2d(%rbp)
		width = -1;
  801742:	c7 45 dc ff ff ff ff 	movl   $0xffffffff,-0x24(%rbp)
		precision = -1;
  801749:	c7 45 d8 ff ff ff ff 	movl   $0xffffffff,-0x28(%rbp)
		lflag = 0;
  801750:	c7 45 e0 00 00 00 00 	movl   $0x0,-0x20(%rbp)
		altflag = 0;
  801757:	c7 45 d4 00 00 00 00 	movl   $0x0,-0x2c(%rbp)
	reswitch:
		switch (ch = *(unsigned char *) fmt++) {
  80175e:	48 8b 45 98          	mov    -0x68(%rbp),%rax
  801762:	48 8d 50 01          	lea    0x1(%rax),%rdx
  801766:	48 89 55 98          	mov    %rdx,-0x68(%rbp)
  80176a:	0f b6 00             	movzbl (%rax),%eax
  80176d:	0f b6 d8             	movzbl %al,%ebx
  801770:	8d 43 dd             	lea    -0x23(%rbx),%eax
  801773:	83 f8 55             	cmp    $0x55,%eax
  801776:	0f 87 34 04 00 00    	ja     801bb0 <vprintfmt+0x4db>
  80177c:	89 c0                	mov    %eax,%eax
  80177e:	48 8d 14 c5 00 00 00 	lea    0x0(,%rax,8),%rdx
  801785:	00 
  801786:	48 b8 18 10 82 00 00 	movabs $0x821018,%rax
  80178d:	00 00 00 
  801790:	48 01 d0             	add    %rdx,%rax
  801793:	48 8b 00             	mov    (%rax),%rax
  801796:	ff e0                	jmpq   *%rax

			// flag to pad on the right
		case '-':
			padc = '-';
  801798:	c6 45 d3 2d          	movb   $0x2d,-0x2d(%rbp)
			goto reswitch;
  80179c:	eb c0                	jmp    80175e <vprintfmt+0x89>

			// flag to pad with 0's instead of spaces
		case '0':
			padc = '0';
  80179e:	c6 45 d3 30          	movb   $0x30,-0x2d(%rbp)
			goto reswitch;
  8017a2:	eb ba                	jmp    80175e <vprintfmt+0x89>
		case '5':
		case '6':
		case '7':
		case '8':
		case '9':
			for (precision = 0; ; ++fmt) {
  8017a4:	c7 45 d8 00 00 00 00 	movl   $0x0,-0x28(%rbp)
				precision = precision * 10 + ch - '0';
  8017ab:	8b 55 d8             	mov    -0x28(%rbp),%edx
  8017ae:	89 d0                	mov    %edx,%eax
  8017b0:	c1 e0 02             	shl    $0x2,%eax
  8017b3:	01 d0                	add    %edx,%eax
  8017b5:	01 c0                	add    %eax,%eax
  8017b7:	01 d8                	add    %ebx,%eax
  8017b9:	83 e8 30             	sub    $0x30,%eax
  8017bc:	89 45 d8             	mov    %eax,-0x28(%rbp)
				ch = *fmt;
  8017bf:	48 8b 45 98          	mov    -0x68(%rbp),%rax
  8017c3:	0f b6 00             	movzbl (%rax),%eax
  8017c6:	0f be d8             	movsbl %al,%ebx
				if (ch < '0' || ch > '9')
  8017c9:	83 fb 2f             	cmp    $0x2f,%ebx
  8017cc:	7e 0c                	jle    8017da <vprintfmt+0x105>
  8017ce:	83 fb 39             	cmp    $0x39,%ebx
  8017d1:	7f 07                	jg     8017da <vprintfmt+0x105>
		case '5':
		case '6':
		case '7':
		case '8':
		case '9':
			for (precision = 0; ; ++fmt) {
  8017d3:	48 83 45 98 01       	addq   $0x1,-0x68(%rbp)
				precision = precision * 10 + ch - '0';
				ch = *fmt;
				if (ch < '0' || ch > '9')
					break;
			}
  8017d8:	eb d1                	jmp    8017ab <vprintfmt+0xd6>
			goto process_precision;
  8017da:	eb 58                	jmp    801834 <vprintfmt+0x15f>

		case '*':
			precision = va_arg(aq, int);
  8017dc:	8b 45 b8             	mov    -0x48(%rbp),%eax
  8017df:	83 f8 30             	cmp    $0x30,%eax
  8017e2:	73 17                	jae    8017fb <vprintfmt+0x126>
  8017e4:	48 8b 55 c8          	mov    -0x38(%rbp),%rdx
  8017e8:	8b 45 b8             	mov    -0x48(%rbp),%eax
  8017eb:	89 c0                	mov    %eax,%eax
  8017ed:	48 01 d0             	add    %rdx,%rax
  8017f0:	8b 55 b8             	mov    -0x48(%rbp),%edx
  8017f3:	83 c2 08             	add    $0x8,%edx
  8017f6:	89 55 b8             	mov    %edx,-0x48(%rbp)
  8017f9:	eb 0f                	jmp    80180a <vprintfmt+0x135>
  8017fb:	48 8b 55 c0          	mov    -0x40(%rbp),%rdx
  8017ff:	48 89 d0             	mov    %rdx,%rax
  801802:	48 83 c2 08          	add    $0x8,%rdx
  801806:	48 89 55 c0          	mov    %rdx,-0x40(%rbp)
  80180a:	8b 00                	mov    (%rax),%eax
  80180c:	89 45 d8             	mov    %eax,-0x28(%rbp)
			goto process_precision;
  80180f:	eb 23                	jmp    801834 <vprintfmt+0x15f>

		case '.':
			if (width < 0)
  801811:	83 7d dc 00          	cmpl   $0x0,-0x24(%rbp)
  801815:	79 0c                	jns    801823 <vprintfmt+0x14e>
				width = 0;
  801817:	c7 45 dc 00 00 00 00 	movl   $0x0,-0x24(%rbp)
			goto reswitch;
  80181e:	e9 3b ff ff ff       	jmpq   80175e <vprintfmt+0x89>
  801823:	e9 36 ff ff ff       	jmpq   80175e <vprintfmt+0x89>

		case '#':
			altflag = 1;
  801828:	c7 45 d4 01 00 00 00 	movl   $0x1,-0x2c(%rbp)
			goto reswitch;
  80182f:	e9 2a ff ff ff       	jmpq   80175e <vprintfmt+0x89>

		process_precision:
			if (width < 0)
  801834:	83 7d dc 00          	cmpl   $0x0,-0x24(%rbp)
  801838:	79 12                	jns    80184c <vprintfmt+0x177>
				width = precision, precision = -1;
  80183a:	8b 45 d8             	mov    -0x28(%rbp),%eax
  80183d:	89 45 dc             	mov    %eax,-0x24(%rbp)
  801840:	c7 45 d8 ff ff ff ff 	movl   $0xffffffff,-0x28(%rbp)
			goto reswitch;
  801847:	e9 12 ff ff ff       	jmpq   80175e <vprintfmt+0x89>
  80184c:	e9 0d ff ff ff       	jmpq   80175e <vprintfmt+0x89>

			// long flag (doubled for long long)
		case 'l':
			lflag++;
  801851:	83 45 e0 01          	addl   $0x1,-0x20(%rbp)
			goto reswitch;
  801855:	e9 04 ff ff ff       	jmpq   80175e <vprintfmt+0x89>

			// character
		case 'c':
			putch(va_arg(aq, int), putdat);
  80185a:	8b 45 b8             	mov    -0x48(%rbp),%eax
  80185d:	83 f8 30             	cmp    $0x30,%eax
  801860:	73 17                	jae    801879 <vprintfmt+0x1a4>
  801862:	48 8b 55 c8          	mov    -0x38(%rbp),%rdx
  801866:	8b 45 b8             	mov    -0x48(%rbp),%eax
  801869:	89 c0                	mov    %eax,%eax
  80186b:	48 01 d0             	add    %rdx,%rax
  80186e:	8b 55 b8             	mov    -0x48(%rbp),%edx
  801871:	83 c2 08             	add    $0x8,%edx
  801874:	89 55 b8             	mov    %edx,-0x48(%rbp)
  801877:	eb 0f                	jmp    801888 <vprintfmt+0x1b3>
  801879:	48 8b 55 c0          	mov    -0x40(%rbp),%rdx
  80187d:	48 89 d0             	mov    %rdx,%rax
  801880:	48 83 c2 08          	add    $0x8,%rdx
  801884:	48 89 55 c0          	mov    %rdx,-0x40(%rbp)
  801888:	8b 10                	mov    (%rax),%edx
  80188a:	48 8b 4d a0          	mov    -0x60(%rbp),%rcx
  80188e:	48 8b 45 a8          	mov    -0x58(%rbp),%rax
  801892:	48 89 ce             	mov    %rcx,%rsi
  801895:	89 d7                	mov    %edx,%edi
  801897:	ff d0                	callq  *%rax
			break;
  801899:	e9 40 03 00 00       	jmpq   801bde <vprintfmt+0x509>

			// error message
		case 'e':
			err = va_arg(aq, int);
  80189e:	8b 45 b8             	mov    -0x48(%rbp),%eax
  8018a1:	83 f8 30             	cmp    $0x30,%eax
  8018a4:	73 17                	jae    8018bd <vprintfmt+0x1e8>
  8018a6:	48 8b 55 c8          	mov    -0x38(%rbp),%rdx
  8018aa:	8b 45 b8             	mov    -0x48(%rbp),%eax
  8018ad:	89 c0                	mov    %eax,%eax
  8018af:	48 01 d0             	add    %rdx,%rax
  8018b2:	8b 55 b8             	mov    -0x48(%rbp),%edx
  8018b5:	83 c2 08             	add    $0x8,%edx
  8018b8:	89 55 b8             	mov    %edx,-0x48(%rbp)
  8018bb:	eb 0f                	jmp    8018cc <vprintfmt+0x1f7>
  8018bd:	48 8b 55 c0          	mov    -0x40(%rbp),%rdx
  8018c1:	48 89 d0             	mov    %rdx,%rax
  8018c4:	48 83 c2 08          	add    $0x8,%rdx
  8018c8:	48 89 55 c0          	mov    %rdx,-0x40(%rbp)
  8018cc:	8b 18                	mov    (%rax),%ebx
			if (err < 0)
  8018ce:	85 db                	test   %ebx,%ebx
  8018d0:	79 02                	jns    8018d4 <vprintfmt+0x1ff>
				err = -err;
  8018d2:	f7 db                	neg    %ebx
			if (err >= MAXERROR || (p = error_string[err]) == NULL)
  8018d4:	83 fb 15             	cmp    $0x15,%ebx
  8018d7:	7f 16                	jg     8018ef <vprintfmt+0x21a>
  8018d9:	48 b8 40 0f 82 00 00 	movabs $0x820f40,%rax
  8018e0:	00 00 00 
  8018e3:	48 63 d3             	movslq %ebx,%rdx
  8018e6:	4c 8b 24 d0          	mov    (%rax,%rdx,8),%r12
  8018ea:	4d 85 e4             	test   %r12,%r12
  8018ed:	75 2e                	jne    80191d <vprintfmt+0x248>
				printfmt(putch, putdat, "error %d", err);
  8018ef:	48 8b 75 a0          	mov    -0x60(%rbp),%rsi
  8018f3:	48 8b 45 a8          	mov    -0x58(%rbp),%rax
  8018f7:	89 d9                	mov    %ebx,%ecx
  8018f9:	48 ba 01 10 82 00 00 	movabs $0x821001,%rdx
  801900:	00 00 00 
  801903:	48 89 c7             	mov    %rax,%rdi
  801906:	b8 00 00 00 00       	mov    $0x0,%eax
  80190b:	49 b8 ed 1b 80 00 00 	movabs $0x801bed,%r8
  801912:	00 00 00 
  801915:	41 ff d0             	callq  *%r8
			else
				printfmt(putch, putdat, "%s", p);
			break;
  801918:	e9 c1 02 00 00       	jmpq   801bde <vprintfmt+0x509>
			if (err < 0)
				err = -err;
			if (err >= MAXERROR || (p = error_string[err]) == NULL)
				printfmt(putch, putdat, "error %d", err);
			else
				printfmt(putch, putdat, "%s", p);
  80191d:	48 8b 75 a0          	mov    -0x60(%rbp),%rsi
  801921:	48 8b 45 a8          	mov    -0x58(%rbp),%rax
  801925:	4c 89 e1             	mov    %r12,%rcx
  801928:	48 ba 0a 10 82 00 00 	movabs $0x82100a,%rdx
  80192f:	00 00 00 
  801932:	48 89 c7             	mov    %rax,%rdi
  801935:	b8 00 00 00 00       	mov    $0x0,%eax
  80193a:	49 b8 ed 1b 80 00 00 	movabs $0x801bed,%r8
  801941:	00 00 00 
  801944:	41 ff d0             	callq  *%r8
			break;
  801947:	e9 92 02 00 00       	jmpq   801bde <vprintfmt+0x509>

			// string
		case 's':
			if ((p = va_arg(aq, char *)) == NULL)
  80194c:	8b 45 b8             	mov    -0x48(%rbp),%eax
  80194f:	83 f8 30             	cmp    $0x30,%eax
  801952:	73 17                	jae    80196b <vprintfmt+0x296>
  801954:	48 8b 55 c8          	mov    -0x38(%rbp),%rdx
  801958:	8b 45 b8             	mov    -0x48(%rbp),%eax
  80195b:	89 c0                	mov    %eax,%eax
  80195d:	48 01 d0             	add    %rdx,%rax
  801960:	8b 55 b8             	mov    -0x48(%rbp),%edx
  801963:	83 c2 08             	add    $0x8,%edx
  801966:	89 55 b8             	mov    %edx,-0x48(%rbp)
  801969:	eb 0f                	jmp    80197a <vprintfmt+0x2a5>
  80196b:	48 8b 55 c0          	mov    -0x40(%rbp),%rdx
  80196f:	48 89 d0             	mov    %rdx,%rax
  801972:	48 83 c2 08          	add    $0x8,%rdx
  801976:	48 89 55 c0          	mov    %rdx,-0x40(%rbp)
  80197a:	4c 8b 20             	mov    (%rax),%r12
  80197d:	4d 85 e4             	test   %r12,%r12
  801980:	75 0a                	jne    80198c <vprintfmt+0x2b7>
				p = "(null)";
  801982:	49 bc 0d 10 82 00 00 	movabs $0x82100d,%r12
  801989:	00 00 00 
			if (width > 0 && padc != '-')
  80198c:	83 7d dc 00          	cmpl   $0x0,-0x24(%rbp)
  801990:	7e 3f                	jle    8019d1 <vprintfmt+0x2fc>
  801992:	80 7d d3 2d          	cmpb   $0x2d,-0x2d(%rbp)
  801996:	74 39                	je     8019d1 <vprintfmt+0x2fc>
				for (width -= strnlen(p, precision); width > 0; width--)
  801998:	8b 45 d8             	mov    -0x28(%rbp),%eax
  80199b:	48 98                	cltq   
  80199d:	48 89 c6             	mov    %rax,%rsi
  8019a0:	4c 89 e7             	mov    %r12,%rdi
  8019a3:	48 b8 99 1e 80 00 00 	movabs $0x801e99,%rax
  8019aa:	00 00 00 
  8019ad:	ff d0                	callq  *%rax
  8019af:	29 45 dc             	sub    %eax,-0x24(%rbp)
  8019b2:	eb 17                	jmp    8019cb <vprintfmt+0x2f6>
					putch(padc, putdat);
  8019b4:	0f be 55 d3          	movsbl -0x2d(%rbp),%edx
  8019b8:	48 8b 4d a0          	mov    -0x60(%rbp),%rcx
  8019bc:	48 8b 45 a8          	mov    -0x58(%rbp),%rax
  8019c0:	48 89 ce             	mov    %rcx,%rsi
  8019c3:	89 d7                	mov    %edx,%edi
  8019c5:	ff d0                	callq  *%rax
			// string
		case 's':
			if ((p = va_arg(aq, char *)) == NULL)
				p = "(null)";
			if (width > 0 && padc != '-')
				for (width -= strnlen(p, precision); width > 0; width--)
  8019c7:	83 6d dc 01          	subl   $0x1,-0x24(%rbp)
  8019cb:	83 7d dc 00          	cmpl   $0x0,-0x24(%rbp)
  8019cf:	7f e3                	jg     8019b4 <vprintfmt+0x2df>
					putch(padc, putdat);
			for (; (ch = *p++) != '\0' && (precision < 0 || --precision >= 0); width--)
  8019d1:	eb 37                	jmp    801a0a <vprintfmt+0x335>
				if (altflag && (ch < ' ' || ch > '~'))
  8019d3:	83 7d d4 00          	cmpl   $0x0,-0x2c(%rbp)
  8019d7:	74 1e                	je     8019f7 <vprintfmt+0x322>
  8019d9:	83 fb 1f             	cmp    $0x1f,%ebx
  8019dc:	7e 05                	jle    8019e3 <vprintfmt+0x30e>
  8019de:	83 fb 7e             	cmp    $0x7e,%ebx
  8019e1:	7e 14                	jle    8019f7 <vprintfmt+0x322>
					putch('?', putdat);
  8019e3:	48 8b 55 a0          	mov    -0x60(%rbp),%rdx
  8019e7:	48 8b 45 a8          	mov    -0x58(%rbp),%rax
  8019eb:	48 89 d6             	mov    %rdx,%rsi
  8019ee:	bf 3f 00 00 00       	mov    $0x3f,%edi
  8019f3:	ff d0                	callq  *%rax
  8019f5:	eb 0f                	jmp    801a06 <vprintfmt+0x331>
				else
					putch(ch, putdat);
  8019f7:	48 8b 55 a0          	mov    -0x60(%rbp),%rdx
  8019fb:	48 8b 45 a8          	mov    -0x58(%rbp),%rax
  8019ff:	48 89 d6             	mov    %rdx,%rsi
  801a02:	89 df                	mov    %ebx,%edi
  801a04:	ff d0                	callq  *%rax
			if ((p = va_arg(aq, char *)) == NULL)
				p = "(null)";
			if (width > 0 && padc != '-')
				for (width -= strnlen(p, precision); width > 0; width--)
					putch(padc, putdat);
			for (; (ch = *p++) != '\0' && (precision < 0 || --precision >= 0); width--)
  801a06:	83 6d dc 01          	subl   $0x1,-0x24(%rbp)
  801a0a:	4c 89 e0             	mov    %r12,%rax
  801a0d:	4c 8d 60 01          	lea    0x1(%rax),%r12
  801a11:	0f b6 00             	movzbl (%rax),%eax
  801a14:	0f be d8             	movsbl %al,%ebx
  801a17:	85 db                	test   %ebx,%ebx
  801a19:	74 10                	je     801a2b <vprintfmt+0x356>
  801a1b:	83 7d d8 00          	cmpl   $0x0,-0x28(%rbp)
  801a1f:	78 b2                	js     8019d3 <vprintfmt+0x2fe>
  801a21:	83 6d d8 01          	subl   $0x1,-0x28(%rbp)
  801a25:	83 7d d8 00          	cmpl   $0x0,-0x28(%rbp)
  801a29:	79 a8                	jns    8019d3 <vprintfmt+0x2fe>
				if (altflag && (ch < ' ' || ch > '~'))
					putch('?', putdat);
				else
					putch(ch, putdat);
			for (; width > 0; width--)
  801a2b:	eb 16                	jmp    801a43 <vprintfmt+0x36e>
				putch(' ', putdat);
  801a2d:	48 8b 55 a0          	mov    -0x60(%rbp),%rdx
  801a31:	48 8b 45 a8          	mov    -0x58(%rbp),%rax
  801a35:	48 89 d6             	mov    %rdx,%rsi
  801a38:	bf 20 00 00 00       	mov    $0x20,%edi
  801a3d:	ff d0                	callq  *%rax
			for (; (ch = *p++) != '\0' && (precision < 0 || --precision >= 0); width--)
				if (altflag && (ch < ' ' || ch > '~'))
					putch('?', putdat);
				else
					putch(ch, putdat);
			for (; width > 0; width--)
  801a3f:	83 6d dc 01          	subl   $0x1,-0x24(%rbp)
  801a43:	83 7d dc 00          	cmpl   $0x0,-0x24(%rbp)
  801a47:	7f e4                	jg     801a2d <vprintfmt+0x358>
				putch(' ', putdat);
			break;
  801a49:	e9 90 01 00 00       	jmpq   801bde <vprintfmt+0x509>

			// (signed) decimal
		case 'd':
			num = getint(&aq, 3);
  801a4e:	48 8d 45 b8          	lea    -0x48(%rbp),%rax
  801a52:	be 03 00 00 00       	mov    $0x3,%esi
  801a57:	48 89 c7             	mov    %rax,%rdi
  801a5a:	48 b8 c5 15 80 00 00 	movabs $0x8015c5,%rax
  801a61:	00 00 00 
  801a64:	ff d0                	callq  *%rax
  801a66:	48 89 45 e8          	mov    %rax,-0x18(%rbp)
			if ((long long) num < 0) {
  801a6a:	48 8b 45 e8          	mov    -0x18(%rbp),%rax
  801a6e:	48 85 c0             	test   %rax,%rax
  801a71:	79 1d                	jns    801a90 <vprintfmt+0x3bb>
				putch('-', putdat);
  801a73:	48 8b 55 a0          	mov    -0x60(%rbp),%rdx
  801a77:	48 8b 45 a8          	mov    -0x58(%rbp),%rax
  801a7b:	48 89 d6             	mov    %rdx,%rsi
  801a7e:	bf 2d 00 00 00       	mov    $0x2d,%edi
  801a83:	ff d0                	callq  *%rax
				num = -(long long) num;
  801a85:	48 8b 45 e8          	mov    -0x18(%rbp),%rax
  801a89:	48 f7 d8             	neg    %rax
  801a8c:	48 89 45 e8          	mov    %rax,-0x18(%rbp)
			}
			base = 10;
  801a90:	c7 45 e4 0a 00 00 00 	movl   $0xa,-0x1c(%rbp)
			goto number;
  801a97:	e9 d5 00 00 00       	jmpq   801b71 <vprintfmt+0x49c>

			// unsigned decimal
		case 'u':
			num = getuint(&aq, 3);
  801a9c:	48 8d 45 b8          	lea    -0x48(%rbp),%rax
  801aa0:	be 03 00 00 00       	mov    $0x3,%esi
  801aa5:	48 89 c7             	mov    %rax,%rdi
  801aa8:	48 b8 b5 14 80 00 00 	movabs $0x8014b5,%rax
  801aaf:	00 00 00 
  801ab2:	ff d0                	callq  *%rax
  801ab4:	48 89 45 e8          	mov    %rax,-0x18(%rbp)
			base = 10;
  801ab8:	c7 45 e4 0a 00 00 00 	movl   $0xa,-0x1c(%rbp)
			goto number;
  801abf:	e9 ad 00 00 00       	jmpq   801b71 <vprintfmt+0x49c>

			// (unsigned) octal
		case 'o':

			num = getuint(&aq, 3);
  801ac4:	48 8d 45 b8          	lea    -0x48(%rbp),%rax
  801ac8:	be 03 00 00 00       	mov    $0x3,%esi
  801acd:	48 89 c7             	mov    %rax,%rdi
  801ad0:	48 b8 b5 14 80 00 00 	movabs $0x8014b5,%rax
  801ad7:	00 00 00 
  801ada:	ff d0                	callq  *%rax
  801adc:	48 89 45 e8          	mov    %rax,-0x18(%rbp)
			base = 8;
  801ae0:	c7 45 e4 08 00 00 00 	movl   $0x8,-0x1c(%rbp)
			goto number;
  801ae7:	e9 85 00 00 00       	jmpq   801b71 <vprintfmt+0x49c>


			// pointer
		case 'p':
			putch('0', putdat);
  801aec:	48 8b 55 a0          	mov    -0x60(%rbp),%rdx
  801af0:	48 8b 45 a8          	mov    -0x58(%rbp),%rax
  801af4:	48 89 d6             	mov    %rdx,%rsi
  801af7:	bf 30 00 00 00       	mov    $0x30,%edi
  801afc:	ff d0                	callq  *%rax
			putch('x', putdat);
  801afe:	48 8b 55 a0          	mov    -0x60(%rbp),%rdx
  801b02:	48 8b 45 a8          	mov    -0x58(%rbp),%rax
  801b06:	48 89 d6             	mov    %rdx,%rsi
  801b09:	bf 78 00 00 00       	mov    $0x78,%edi
  801b0e:	ff d0                	callq  *%rax
			num = (unsigned long long)
				(uintptr_t) va_arg(aq, void *);
  801b10:	8b 45 b8             	mov    -0x48(%rbp),%eax
  801b13:	83 f8 30             	cmp    $0x30,%eax
  801b16:	73 17                	jae    801b2f <vprintfmt+0x45a>
  801b18:	48 8b 55 c8          	mov    -0x38(%rbp),%rdx
  801b1c:	8b 45 b8             	mov    -0x48(%rbp),%eax
  801b1f:	89 c0                	mov    %eax,%eax
  801b21:	48 01 d0             	add    %rdx,%rax
  801b24:	8b 55 b8             	mov    -0x48(%rbp),%edx
  801b27:	83 c2 08             	add    $0x8,%edx
  801b2a:	89 55 b8             	mov    %edx,-0x48(%rbp)

			// pointer
		case 'p':
			putch('0', putdat);
			putch('x', putdat);
			num = (unsigned long long)
  801b2d:	eb 0f                	jmp    801b3e <vprintfmt+0x469>
				(uintptr_t) va_arg(aq, void *);
  801b2f:	48 8b 55 c0          	mov    -0x40(%rbp),%rdx
  801b33:	48 89 d0             	mov    %rdx,%rax
  801b36:	48 83 c2 08          	add    $0x8,%rdx
  801b3a:	48 89 55 c0          	mov    %rdx,-0x40(%rbp)
  801b3e:	48 8b 00             	mov    (%rax),%rax

			// pointer
		case 'p':
			putch('0', putdat);
			putch('x', putdat);
			num = (unsigned long long)
  801b41:	48 89 45 e8          	mov    %rax,-0x18(%rbp)
				(uintptr_t) va_arg(aq, void *);
			base = 16;
  801b45:	c7 45 e4 10 00 00 00 	movl   $0x10,-0x1c(%rbp)
			goto number;
  801b4c:	eb 23                	jmp    801b71 <vprintfmt+0x49c>

			// (unsigned) hexadecimal
		case 'x':
			num = getuint(&aq, 3);
  801b4e:	48 8d 45 b8          	lea    -0x48(%rbp),%rax
  801b52:	be 03 00 00 00       	mov    $0x3,%esi
  801b57:	48 89 c7             	mov    %rax,%rdi
  801b5a:	48 b8 b5 14 80 00 00 	movabs $0x8014b5,%rax
  801b61:	00 00 00 
  801b64:	ff d0                	callq  *%rax
  801b66:	48 89 45 e8          	mov    %rax,-0x18(%rbp)
			base = 16;
  801b6a:	c7 45 e4 10 00 00 00 	movl   $0x10,-0x1c(%rbp)
		number:
			printnum(putch, putdat, num, base, width, padc);
  801b71:	44 0f be 45 d3       	movsbl -0x2d(%rbp),%r8d
  801b76:	8b 4d e4             	mov    -0x1c(%rbp),%ecx
  801b79:	8b 7d dc             	mov    -0x24(%rbp),%edi
  801b7c:	48 8b 55 e8          	mov    -0x18(%rbp),%rdx
  801b80:	48 8b 75 a0          	mov    -0x60(%rbp),%rsi
  801b84:	48 8b 45 a8          	mov    -0x58(%rbp),%rax
  801b88:	45 89 c1             	mov    %r8d,%r9d
  801b8b:	41 89 f8             	mov    %edi,%r8d
  801b8e:	48 89 c7             	mov    %rax,%rdi
  801b91:	48 b8 fa 13 80 00 00 	movabs $0x8013fa,%rax
  801b98:	00 00 00 
  801b9b:	ff d0                	callq  *%rax
			break;
  801b9d:	eb 3f                	jmp    801bde <vprintfmt+0x509>

			// escaped '%' character
		case '%':
			putch(ch, putdat);
  801b9f:	48 8b 55 a0          	mov    -0x60(%rbp),%rdx
  801ba3:	48 8b 45 a8          	mov    -0x58(%rbp),%rax
  801ba7:	48 89 d6             	mov    %rdx,%rsi
  801baa:	89 df                	mov    %ebx,%edi
  801bac:	ff d0                	callq  *%rax
			break;
  801bae:	eb 2e                	jmp    801bde <vprintfmt+0x509>

			// unrecognized escape sequence - just print it literally
		default:
			putch('%', putdat);
  801bb0:	48 8b 55 a0          	mov    -0x60(%rbp),%rdx
  801bb4:	48 8b 45 a8          	mov    -0x58(%rbp),%rax
  801bb8:	48 89 d6             	mov    %rdx,%rsi
  801bbb:	bf 25 00 00 00       	mov    $0x25,%edi
  801bc0:	ff d0                	callq  *%rax
			for (fmt--; fmt[-1] != '%'; fmt--)
  801bc2:	48 83 6d 98 01       	subq   $0x1,-0x68(%rbp)
  801bc7:	eb 05                	jmp    801bce <vprintfmt+0x4f9>
  801bc9:	48 83 6d 98 01       	subq   $0x1,-0x68(%rbp)
  801bce:	48 8b 45 98          	mov    -0x68(%rbp),%rax
  801bd2:	48 83 e8 01          	sub    $0x1,%rax
  801bd6:	0f b6 00             	movzbl (%rax),%eax
  801bd9:	3c 25                	cmp    $0x25,%al
  801bdb:	75 ec                	jne    801bc9 <vprintfmt+0x4f4>
				/* do nothing */;
			break;
  801bdd:	90                   	nop
		}
	}
  801bde:	90                   	nop
	int base, lflag, width, precision, altflag;
	char padc;
	va_list aq;
	va_copy(aq,ap);
	while (1) {
		while ((ch = *(unsigned char *) fmt++) != '%') {
  801bdf:	e9 43 fb ff ff       	jmpq   801727 <vprintfmt+0x52>
				/* do nothing */;
			break;
		}
	}
	va_end(aq);
}
  801be4:	48 83 c4 60          	add    $0x60,%rsp
  801be8:	5b                   	pop    %rbx
  801be9:	41 5c                	pop    %r12
  801beb:	5d                   	pop    %rbp
  801bec:	c3                   	retq   

0000000000801bed <printfmt>:

void
printfmt(void (*putch)(int, void*), void *putdat, const char *fmt, ...)
{
  801bed:	55                   	push   %rbp
  801bee:	48 89 e5             	mov    %rsp,%rbp
  801bf1:	48 81 ec f0 00 00 00 	sub    $0xf0,%rsp
  801bf8:	48 89 bd 28 ff ff ff 	mov    %rdi,-0xd8(%rbp)
  801bff:	48 89 b5 20 ff ff ff 	mov    %rsi,-0xe0(%rbp)
  801c06:	48 89 8d 68 ff ff ff 	mov    %rcx,-0x98(%rbp)
  801c0d:	4c 89 85 70 ff ff ff 	mov    %r8,-0x90(%rbp)
  801c14:	4c 89 8d 78 ff ff ff 	mov    %r9,-0x88(%rbp)
  801c1b:	84 c0                	test   %al,%al
  801c1d:	74 20                	je     801c3f <printfmt+0x52>
  801c1f:	0f 29 45 80          	movaps %xmm0,-0x80(%rbp)
  801c23:	0f 29 4d 90          	movaps %xmm1,-0x70(%rbp)
  801c27:	0f 29 55 a0          	movaps %xmm2,-0x60(%rbp)
  801c2b:	0f 29 5d b0          	movaps %xmm3,-0x50(%rbp)
  801c2f:	0f 29 65 c0          	movaps %xmm4,-0x40(%rbp)
  801c33:	0f 29 6d d0          	movaps %xmm5,-0x30(%rbp)
  801c37:	0f 29 75 e0          	movaps %xmm6,-0x20(%rbp)
  801c3b:	0f 29 7d f0          	movaps %xmm7,-0x10(%rbp)
  801c3f:	48 89 95 18 ff ff ff 	mov    %rdx,-0xe8(%rbp)
	va_list ap;

	va_start(ap, fmt);
  801c46:	c7 85 38 ff ff ff 18 	movl   $0x18,-0xc8(%rbp)
  801c4d:	00 00 00 
  801c50:	c7 85 3c ff ff ff 30 	movl   $0x30,-0xc4(%rbp)
  801c57:	00 00 00 
  801c5a:	48 8d 45 10          	lea    0x10(%rbp),%rax
  801c5e:	48 89 85 40 ff ff ff 	mov    %rax,-0xc0(%rbp)
  801c65:	48 8d 85 50 ff ff ff 	lea    -0xb0(%rbp),%rax
  801c6c:	48 89 85 48 ff ff ff 	mov    %rax,-0xb8(%rbp)
	vprintfmt(putch, putdat, fmt, ap);
  801c73:	48 8d 8d 38 ff ff ff 	lea    -0xc8(%rbp),%rcx
  801c7a:	48 8b 95 18 ff ff ff 	mov    -0xe8(%rbp),%rdx
  801c81:	48 8b b5 20 ff ff ff 	mov    -0xe0(%rbp),%rsi
  801c88:	48 8b 85 28 ff ff ff 	mov    -0xd8(%rbp),%rax
  801c8f:	48 89 c7             	mov    %rax,%rdi
  801c92:	48 b8 d5 16 80 00 00 	movabs $0x8016d5,%rax
  801c99:	00 00 00 
  801c9c:	ff d0                	callq  *%rax
	va_end(ap);
}
  801c9e:	c9                   	leaveq 
  801c9f:	c3                   	retq   

0000000000801ca0 <sprintputch>:
	int cnt;
};

static void
sprintputch(int ch, struct sprintbuf *b)
{
  801ca0:	55                   	push   %rbp
  801ca1:	48 89 e5             	mov    %rsp,%rbp
  801ca4:	48 83 ec 10          	sub    $0x10,%rsp
  801ca8:	89 7d fc             	mov    %edi,-0x4(%rbp)
  801cab:	48 89 75 f0          	mov    %rsi,-0x10(%rbp)
	b->cnt++;
  801caf:	48 8b 45 f0          	mov    -0x10(%rbp),%rax
  801cb3:	8b 40 10             	mov    0x10(%rax),%eax
  801cb6:	8d 50 01             	lea    0x1(%rax),%edx
  801cb9:	48 8b 45 f0          	mov    -0x10(%rbp),%rax
  801cbd:	89 50 10             	mov    %edx,0x10(%rax)
	if (b->buf < b->ebuf)
  801cc0:	48 8b 45 f0          	mov    -0x10(%rbp),%rax
  801cc4:	48 8b 10             	mov    (%rax),%rdx
  801cc7:	48 8b 45 f0          	mov    -0x10(%rbp),%rax
  801ccb:	48 8b 40 08          	mov    0x8(%rax),%rax
  801ccf:	48 39 c2             	cmp    %rax,%rdx
  801cd2:	73 17                	jae    801ceb <sprintputch+0x4b>
		*b->buf++ = ch;
  801cd4:	48 8b 45 f0          	mov    -0x10(%rbp),%rax
  801cd8:	48 8b 00             	mov    (%rax),%rax
  801cdb:	48 8d 48 01          	lea    0x1(%rax),%rcx
  801cdf:	48 8b 55 f0          	mov    -0x10(%rbp),%rdx
  801ce3:	48 89 0a             	mov    %rcx,(%rdx)
  801ce6:	8b 55 fc             	mov    -0x4(%rbp),%edx
  801ce9:	88 10                	mov    %dl,(%rax)
}
  801ceb:	c9                   	leaveq 
  801cec:	c3                   	retq   

0000000000801ced <vsnprintf>:

int
vsnprintf(char *buf, int n, const char *fmt, va_list ap)
{
  801ced:	55                   	push   %rbp
  801cee:	48 89 e5             	mov    %rsp,%rbp
  801cf1:	48 83 ec 50          	sub    $0x50,%rsp
  801cf5:	48 89 7d c8          	mov    %rdi,-0x38(%rbp)
  801cf9:	89 75 c4             	mov    %esi,-0x3c(%rbp)
  801cfc:	48 89 55 b8          	mov    %rdx,-0x48(%rbp)
  801d00:	48 89 4d b0          	mov    %rcx,-0x50(%rbp)
	va_list aq;
	va_copy(aq,ap);
  801d04:	48 8d 45 e8          	lea    -0x18(%rbp),%rax
  801d08:	48 8b 55 b0          	mov    -0x50(%rbp),%rdx
  801d0c:	48 8b 0a             	mov    (%rdx),%rcx
  801d0f:	48 89 08             	mov    %rcx,(%rax)
  801d12:	48 8b 4a 08          	mov    0x8(%rdx),%rcx
  801d16:	48 89 48 08          	mov    %rcx,0x8(%rax)
  801d1a:	48 8b 52 10          	mov    0x10(%rdx),%rdx
  801d1e:	48 89 50 10          	mov    %rdx,0x10(%rax)
	struct sprintbuf b = {buf, buf+n-1, 0};
  801d22:	48 8b 45 c8          	mov    -0x38(%rbp),%rax
  801d26:	48 89 45 d0          	mov    %rax,-0x30(%rbp)
  801d2a:	8b 45 c4             	mov    -0x3c(%rbp),%eax
  801d2d:	48 98                	cltq   
  801d2f:	48 8d 50 ff          	lea    -0x1(%rax),%rdx
  801d33:	48 8b 45 c8          	mov    -0x38(%rbp),%rax
  801d37:	48 01 d0             	add    %rdx,%rax
  801d3a:	48 89 45 d8          	mov    %rax,-0x28(%rbp)
  801d3e:	c7 45 e0 00 00 00 00 	movl   $0x0,-0x20(%rbp)

	if (buf == NULL || n < 1)
  801d45:	48 83 7d c8 00       	cmpq   $0x0,-0x38(%rbp)
  801d4a:	74 06                	je     801d52 <vsnprintf+0x65>
  801d4c:	83 7d c4 00          	cmpl   $0x0,-0x3c(%rbp)
  801d50:	7f 07                	jg     801d59 <vsnprintf+0x6c>
		return -E_INVAL;
  801d52:	b8 fd ff ff ff       	mov    $0xfffffffd,%eax
  801d57:	eb 2f                	jmp    801d88 <vsnprintf+0x9b>

	// print the string to the buffer
	vprintfmt((void*)sprintputch, &b, fmt, aq);
  801d59:	48 8d 4d e8          	lea    -0x18(%rbp),%rcx
  801d5d:	48 8b 55 b8          	mov    -0x48(%rbp),%rdx
  801d61:	48 8d 45 d0          	lea    -0x30(%rbp),%rax
  801d65:	48 89 c6             	mov    %rax,%rsi
  801d68:	48 bf a0 1c 80 00 00 	movabs $0x801ca0,%rdi
  801d6f:	00 00 00 
  801d72:	48 b8 d5 16 80 00 00 	movabs $0x8016d5,%rax
  801d79:	00 00 00 
  801d7c:	ff d0                	callq  *%rax
	va_end(aq);
	// null terminate the buffer
	*b.buf = '\0';
  801d7e:	48 8b 45 d0          	mov    -0x30(%rbp),%rax
  801d82:	c6 00 00             	movb   $0x0,(%rax)

	return b.cnt;
  801d85:	8b 45 e0             	mov    -0x20(%rbp),%eax
}
  801d88:	c9                   	leaveq 
  801d89:	c3                   	retq   

0000000000801d8a <snprintf>:

int
snprintf(char *buf, int n, const char *fmt, ...)
{
  801d8a:	55                   	push   %rbp
  801d8b:	48 89 e5             	mov    %rsp,%rbp
  801d8e:	48 81 ec 10 01 00 00 	sub    $0x110,%rsp
  801d95:	48 89 bd 08 ff ff ff 	mov    %rdi,-0xf8(%rbp)
  801d9c:	89 b5 04 ff ff ff    	mov    %esi,-0xfc(%rbp)
  801da2:	48 89 8d 68 ff ff ff 	mov    %rcx,-0x98(%rbp)
  801da9:	4c 89 85 70 ff ff ff 	mov    %r8,-0x90(%rbp)
  801db0:	4c 89 8d 78 ff ff ff 	mov    %r9,-0x88(%rbp)
  801db7:	84 c0                	test   %al,%al
  801db9:	74 20                	je     801ddb <snprintf+0x51>
  801dbb:	0f 29 45 80          	movaps %xmm0,-0x80(%rbp)
  801dbf:	0f 29 4d 90          	movaps %xmm1,-0x70(%rbp)
  801dc3:	0f 29 55 a0          	movaps %xmm2,-0x60(%rbp)
  801dc7:	0f 29 5d b0          	movaps %xmm3,-0x50(%rbp)
  801dcb:	0f 29 65 c0          	movaps %xmm4,-0x40(%rbp)
  801dcf:	0f 29 6d d0          	movaps %xmm5,-0x30(%rbp)
  801dd3:	0f 29 75 e0          	movaps %xmm6,-0x20(%rbp)
  801dd7:	0f 29 7d f0          	movaps %xmm7,-0x10(%rbp)
  801ddb:	48 89 95 f8 fe ff ff 	mov    %rdx,-0x108(%rbp)
	va_list ap;
	int rc;
	va_list aq;
	va_start(ap, fmt);
  801de2:	c7 85 30 ff ff ff 18 	movl   $0x18,-0xd0(%rbp)
  801de9:	00 00 00 
  801dec:	c7 85 34 ff ff ff 30 	movl   $0x30,-0xcc(%rbp)
  801df3:	00 00 00 
  801df6:	48 8d 45 10          	lea    0x10(%rbp),%rax
  801dfa:	48 89 85 38 ff ff ff 	mov    %rax,-0xc8(%rbp)
  801e01:	48 8d 85 50 ff ff ff 	lea    -0xb0(%rbp),%rax
  801e08:	48 89 85 40 ff ff ff 	mov    %rax,-0xc0(%rbp)
	va_copy(aq,ap);
  801e0f:	48 8d 85 18 ff ff ff 	lea    -0xe8(%rbp),%rax
  801e16:	48 8d 95 30 ff ff ff 	lea    -0xd0(%rbp),%rdx
  801e1d:	48 8b 0a             	mov    (%rdx),%rcx
  801e20:	48 89 08             	mov    %rcx,(%rax)
  801e23:	48 8b 4a 08          	mov    0x8(%rdx),%rcx
  801e27:	48 89 48 08          	mov    %rcx,0x8(%rax)
  801e2b:	48 8b 52 10          	mov    0x10(%rdx),%rdx
  801e2f:	48 89 50 10          	mov    %rdx,0x10(%rax)
	rc = vsnprintf(buf, n, fmt, aq);
  801e33:	48 8d 8d 18 ff ff ff 	lea    -0xe8(%rbp),%rcx
  801e3a:	48 8b 95 f8 fe ff ff 	mov    -0x108(%rbp),%rdx
  801e41:	8b b5 04 ff ff ff    	mov    -0xfc(%rbp),%esi
  801e47:	48 8b 85 08 ff ff ff 	mov    -0xf8(%rbp),%rax
  801e4e:	48 89 c7             	mov    %rax,%rdi
  801e51:	48 b8 ed 1c 80 00 00 	movabs $0x801ced,%rax
  801e58:	00 00 00 
  801e5b:	ff d0                	callq  *%rax
  801e5d:	89 85 4c ff ff ff    	mov    %eax,-0xb4(%rbp)
	va_end(aq);

	return rc;
  801e63:	8b 85 4c ff ff ff    	mov    -0xb4(%rbp),%eax
}
  801e69:	c9                   	leaveq 
  801e6a:	c3                   	retq   

0000000000801e6b <strlen>:
// Primespipe runs 3x faster this way.
#define ASM 1

int
strlen(const char *s)
{
  801e6b:	55                   	push   %rbp
  801e6c:	48 89 e5             	mov    %rsp,%rbp
  801e6f:	48 83 ec 18          	sub    $0x18,%rsp
  801e73:	48 89 7d e8          	mov    %rdi,-0x18(%rbp)
	int n;

	for (n = 0; *s != '\0'; s++)
  801e77:	c7 45 fc 00 00 00 00 	movl   $0x0,-0x4(%rbp)
  801e7e:	eb 09                	jmp    801e89 <strlen+0x1e>
		n++;
  801e80:	83 45 fc 01          	addl   $0x1,-0x4(%rbp)
int
strlen(const char *s)
{
	int n;

	for (n = 0; *s != '\0'; s++)
  801e84:	48 83 45 e8 01       	addq   $0x1,-0x18(%rbp)
  801e89:	48 8b 45 e8          	mov    -0x18(%rbp),%rax
  801e8d:	0f b6 00             	movzbl (%rax),%eax
  801e90:	84 c0                	test   %al,%al
  801e92:	75 ec                	jne    801e80 <strlen+0x15>
		n++;
	return n;
  801e94:	8b 45 fc             	mov    -0x4(%rbp),%eax
}
  801e97:	c9                   	leaveq 
  801e98:	c3                   	retq   

0000000000801e99 <strnlen>:

int
strnlen(const char *s, size_t size)
{
  801e99:	55                   	push   %rbp
  801e9a:	48 89 e5             	mov    %rsp,%rbp
  801e9d:	48 83 ec 20          	sub    $0x20,%rsp
  801ea1:	48 89 7d e8          	mov    %rdi,-0x18(%rbp)
  801ea5:	48 89 75 e0          	mov    %rsi,-0x20(%rbp)
	int n;

	for (n = 0; size > 0 && *s != '\0'; s++, size--)
  801ea9:	c7 45 fc 00 00 00 00 	movl   $0x0,-0x4(%rbp)
  801eb0:	eb 0e                	jmp    801ec0 <strnlen+0x27>
		n++;
  801eb2:	83 45 fc 01          	addl   $0x1,-0x4(%rbp)
int
strnlen(const char *s, size_t size)
{
	int n;

	for (n = 0; size > 0 && *s != '\0'; s++, size--)
  801eb6:	48 83 45 e8 01       	addq   $0x1,-0x18(%rbp)
  801ebb:	48 83 6d e0 01       	subq   $0x1,-0x20(%rbp)
  801ec0:	48 83 7d e0 00       	cmpq   $0x0,-0x20(%rbp)
  801ec5:	74 0b                	je     801ed2 <strnlen+0x39>
  801ec7:	48 8b 45 e8          	mov    -0x18(%rbp),%rax
  801ecb:	0f b6 00             	movzbl (%rax),%eax
  801ece:	84 c0                	test   %al,%al
  801ed0:	75 e0                	jne    801eb2 <strnlen+0x19>
		n++;
	return n;
  801ed2:	8b 45 fc             	mov    -0x4(%rbp),%eax
}
  801ed5:	c9                   	leaveq 
  801ed6:	c3                   	retq   

0000000000801ed7 <strcpy>:

char *
strcpy(char *dst, const char *src)
{
  801ed7:	55                   	push   %rbp
  801ed8:	48 89 e5             	mov    %rsp,%rbp
  801edb:	48 83 ec 20          	sub    $0x20,%rsp
  801edf:	48 89 7d e8          	mov    %rdi,-0x18(%rbp)
  801ee3:	48 89 75 e0          	mov    %rsi,-0x20(%rbp)
	char *ret;

	ret = dst;
  801ee7:	48 8b 45 e8          	mov    -0x18(%rbp),%rax
  801eeb:	48 89 45 f8          	mov    %rax,-0x8(%rbp)
	while ((*dst++ = *src++) != '\0')
  801eef:	90                   	nop
  801ef0:	48 8b 45 e8          	mov    -0x18(%rbp),%rax
  801ef4:	48 8d 50 01          	lea    0x1(%rax),%rdx
  801ef8:	48 89 55 e8          	mov    %rdx,-0x18(%rbp)
  801efc:	48 8b 55 e0          	mov    -0x20(%rbp),%rdx
  801f00:	48 8d 4a 01          	lea    0x1(%rdx),%rcx
  801f04:	48 89 4d e0          	mov    %rcx,-0x20(%rbp)
  801f08:	0f b6 12             	movzbl (%rdx),%edx
  801f0b:	88 10                	mov    %dl,(%rax)
  801f0d:	0f b6 00             	movzbl (%rax),%eax
  801f10:	84 c0                	test   %al,%al
  801f12:	75 dc                	jne    801ef0 <strcpy+0x19>
		/* do nothing */;
	return ret;
  801f14:	48 8b 45 f8          	mov    -0x8(%rbp),%rax
}
  801f18:	c9                   	leaveq 
  801f19:	c3                   	retq   

0000000000801f1a <strcat>:

char *
strcat(char *dst, const char *src)
{
  801f1a:	55                   	push   %rbp
  801f1b:	48 89 e5             	mov    %rsp,%rbp
  801f1e:	48 83 ec 20          	sub    $0x20,%rsp
  801f22:	48 89 7d e8          	mov    %rdi,-0x18(%rbp)
  801f26:	48 89 75 e0          	mov    %rsi,-0x20(%rbp)
	int len = strlen(dst);
  801f2a:	48 8b 45 e8          	mov    -0x18(%rbp),%rax
  801f2e:	48 89 c7             	mov    %rax,%rdi
  801f31:	48 b8 6b 1e 80 00 00 	movabs $0x801e6b,%rax
  801f38:	00 00 00 
  801f3b:	ff d0                	callq  *%rax
  801f3d:	89 45 fc             	mov    %eax,-0x4(%rbp)
	strcpy(dst + len, src);
  801f40:	8b 45 fc             	mov    -0x4(%rbp),%eax
  801f43:	48 63 d0             	movslq %eax,%rdx
  801f46:	48 8b 45 e8          	mov    -0x18(%rbp),%rax
  801f4a:	48 01 c2             	add    %rax,%rdx
  801f4d:	48 8b 45 e0          	mov    -0x20(%rbp),%rax
  801f51:	48 89 c6             	mov    %rax,%rsi
  801f54:	48 89 d7             	mov    %rdx,%rdi
  801f57:	48 b8 d7 1e 80 00 00 	movabs $0x801ed7,%rax
  801f5e:	00 00 00 
  801f61:	ff d0                	callq  *%rax
	return dst;
  801f63:	48 8b 45 e8          	mov    -0x18(%rbp),%rax
}
  801f67:	c9                   	leaveq 
  801f68:	c3                   	retq   

0000000000801f69 <strncpy>:

char *
strncpy(char *dst, const char *src, size_t size) {
  801f69:	55                   	push   %rbp
  801f6a:	48 89 e5             	mov    %rsp,%rbp
  801f6d:	48 83 ec 28          	sub    $0x28,%rsp
  801f71:	48 89 7d e8          	mov    %rdi,-0x18(%rbp)
  801f75:	48 89 75 e0          	mov    %rsi,-0x20(%rbp)
  801f79:	48 89 55 d8          	mov    %rdx,-0x28(%rbp)
	size_t i;
	char *ret;

	ret = dst;
  801f7d:	48 8b 45 e8          	mov    -0x18(%rbp),%rax
  801f81:	48 89 45 f0          	mov    %rax,-0x10(%rbp)
	for (i = 0; i < size; i++) {
  801f85:	48 c7 45 f8 00 00 00 	movq   $0x0,-0x8(%rbp)
  801f8c:	00 
  801f8d:	eb 2a                	jmp    801fb9 <strncpy+0x50>
		*dst++ = *src;
  801f8f:	48 8b 45 e8          	mov    -0x18(%rbp),%rax
  801f93:	48 8d 50 01          	lea    0x1(%rax),%rdx
  801f97:	48 89 55 e8          	mov    %rdx,-0x18(%rbp)
  801f9b:	48 8b 55 e0          	mov    -0x20(%rbp),%rdx
  801f9f:	0f b6 12             	movzbl (%rdx),%edx
  801fa2:	88 10                	mov    %dl,(%rax)
		// If strlen(src) < size, null-pad 'dst' out to 'size' chars
		if (*src != '\0')
  801fa4:	48 8b 45 e0          	mov    -0x20(%rbp),%rax
  801fa8:	0f b6 00             	movzbl (%rax),%eax
  801fab:	84 c0                	test   %al,%al
  801fad:	74 05                	je     801fb4 <strncpy+0x4b>
			src++;
  801faf:	48 83 45 e0 01       	addq   $0x1,-0x20(%rbp)
strncpy(char *dst, const char *src, size_t size) {
	size_t i;
	char *ret;

	ret = dst;
	for (i = 0; i < size; i++) {
  801fb4:	48 83 45 f8 01       	addq   $0x1,-0x8(%rbp)
  801fb9:	48 8b 45 f8          	mov    -0x8(%rbp),%rax
  801fbd:	48 3b 45 d8          	cmp    -0x28(%rbp),%rax
  801fc1:	72 cc                	jb     801f8f <strncpy+0x26>
		*dst++ = *src;
		// If strlen(src) < size, null-pad 'dst' out to 'size' chars
		if (*src != '\0')
			src++;
	}
	return ret;
  801fc3:	48 8b 45 f0          	mov    -0x10(%rbp),%rax
}
  801fc7:	c9                   	leaveq 
  801fc8:	c3                   	retq   

0000000000801fc9 <strlcpy>:

size_t
strlcpy(char *dst, const char *src, size_t size)
{
  801fc9:	55                   	push   %rbp
  801fca:	48 89 e5             	mov    %rsp,%rbp
  801fcd:	48 83 ec 28          	sub    $0x28,%rsp
  801fd1:	48 89 7d e8          	mov    %rdi,-0x18(%rbp)
  801fd5:	48 89 75 e0          	mov    %rsi,-0x20(%rbp)
  801fd9:	48 89 55 d8          	mov    %rdx,-0x28(%rbp)
	char *dst_in;

	dst_in = dst;
  801fdd:	48 8b 45 e8          	mov    -0x18(%rbp),%rax
  801fe1:	48 89 45 f8          	mov    %rax,-0x8(%rbp)
	if (size > 0) {
  801fe5:	48 83 7d d8 00       	cmpq   $0x0,-0x28(%rbp)
  801fea:	74 3d                	je     802029 <strlcpy+0x60>
		while (--size > 0 && *src != '\0')
  801fec:	eb 1d                	jmp    80200b <strlcpy+0x42>
			*dst++ = *src++;
  801fee:	48 8b 45 e8          	mov    -0x18(%rbp),%rax
  801ff2:	48 8d 50 01          	lea    0x1(%rax),%rdx
  801ff6:	48 89 55 e8          	mov    %rdx,-0x18(%rbp)
  801ffa:	48 8b 55 e0          	mov    -0x20(%rbp),%rdx
  801ffe:	48 8d 4a 01          	lea    0x1(%rdx),%rcx
  802002:	48 89 4d e0          	mov    %rcx,-0x20(%rbp)
  802006:	0f b6 12             	movzbl (%rdx),%edx
  802009:	88 10                	mov    %dl,(%rax)
{
	char *dst_in;

	dst_in = dst;
	if (size > 0) {
		while (--size > 0 && *src != '\0')
  80200b:	48 83 6d d8 01       	subq   $0x1,-0x28(%rbp)
  802010:	48 83 7d d8 00       	cmpq   $0x0,-0x28(%rbp)
  802015:	74 0b                	je     802022 <strlcpy+0x59>
  802017:	48 8b 45 e0          	mov    -0x20(%rbp),%rax
  80201b:	0f b6 00             	movzbl (%rax),%eax
  80201e:	84 c0                	test   %al,%al
  802020:	75 cc                	jne    801fee <strlcpy+0x25>
			*dst++ = *src++;
		*dst = '\0';
  802022:	48 8b 45 e8          	mov    -0x18(%rbp),%rax
  802026:	c6 00 00             	movb   $0x0,(%rax)
	}
	return dst - dst_in;
  802029:	48 8b 55 e8          	mov    -0x18(%rbp),%rdx
  80202d:	48 8b 45 f8          	mov    -0x8(%rbp),%rax
  802031:	48 29 c2             	sub    %rax,%rdx
  802034:	48 89 d0             	mov    %rdx,%rax
}
  802037:	c9                   	leaveq 
  802038:	c3                   	retq   

0000000000802039 <strcmp>:

int
strcmp(const char *p, const char *q)
{
  802039:	55                   	push   %rbp
  80203a:	48 89 e5             	mov    %rsp,%rbp
  80203d:	48 83 ec 10          	sub    $0x10,%rsp
  802041:	48 89 7d f8          	mov    %rdi,-0x8(%rbp)
  802045:	48 89 75 f0          	mov    %rsi,-0x10(%rbp)
	while (*p && *p == *q)
  802049:	eb 0a                	jmp    802055 <strcmp+0x1c>
		p++, q++;
  80204b:	48 83 45 f8 01       	addq   $0x1,-0x8(%rbp)
  802050:	48 83 45 f0 01       	addq   $0x1,-0x10(%rbp)
}

int
strcmp(const char *p, const char *q)
{
	while (*p && *p == *q)
  802055:	48 8b 45 f8          	mov    -0x8(%rbp),%rax
  802059:	0f b6 00             	movzbl (%rax),%eax
  80205c:	84 c0                	test   %al,%al
  80205e:	74 12                	je     802072 <strcmp+0x39>
  802060:	48 8b 45 f8          	mov    -0x8(%rbp),%rax
  802064:	0f b6 10             	movzbl (%rax),%edx
  802067:	48 8b 45 f0          	mov    -0x10(%rbp),%rax
  80206b:	0f b6 00             	movzbl (%rax),%eax
  80206e:	38 c2                	cmp    %al,%dl
  802070:	74 d9                	je     80204b <strcmp+0x12>
		p++, q++;
	return (int) ((unsigned char) *p - (unsigned char) *q);
  802072:	48 8b 45 f8          	mov    -0x8(%rbp),%rax
  802076:	0f b6 00             	movzbl (%rax),%eax
  802079:	0f b6 d0             	movzbl %al,%edx
  80207c:	48 8b 45 f0          	mov    -0x10(%rbp),%rax
  802080:	0f b6 00             	movzbl (%rax),%eax
  802083:	0f b6 c0             	movzbl %al,%eax
  802086:	29 c2                	sub    %eax,%edx
  802088:	89 d0                	mov    %edx,%eax
}
  80208a:	c9                   	leaveq 
  80208b:	c3                   	retq   

000000000080208c <strncmp>:

int
strncmp(const char *p, const char *q, size_t n)
{
  80208c:	55                   	push   %rbp
  80208d:	48 89 e5             	mov    %rsp,%rbp
  802090:	48 83 ec 18          	sub    $0x18,%rsp
  802094:	48 89 7d f8          	mov    %rdi,-0x8(%rbp)
  802098:	48 89 75 f0          	mov    %rsi,-0x10(%rbp)
  80209c:	48 89 55 e8          	mov    %rdx,-0x18(%rbp)
	while (n > 0 && *p && *p == *q)
  8020a0:	eb 0f                	jmp    8020b1 <strncmp+0x25>
		n--, p++, q++;
  8020a2:	48 83 6d e8 01       	subq   $0x1,-0x18(%rbp)
  8020a7:	48 83 45 f8 01       	addq   $0x1,-0x8(%rbp)
  8020ac:	48 83 45 f0 01       	addq   $0x1,-0x10(%rbp)
}

int
strncmp(const char *p, const char *q, size_t n)
{
	while (n > 0 && *p && *p == *q)
  8020b1:	48 83 7d e8 00       	cmpq   $0x0,-0x18(%rbp)
  8020b6:	74 1d                	je     8020d5 <strncmp+0x49>
  8020b8:	48 8b 45 f8          	mov    -0x8(%rbp),%rax
  8020bc:	0f b6 00             	movzbl (%rax),%eax
  8020bf:	84 c0                	test   %al,%al
  8020c1:	74 12                	je     8020d5 <strncmp+0x49>
  8020c3:	48 8b 45 f8          	mov    -0x8(%rbp),%rax
  8020c7:	0f b6 10             	movzbl (%rax),%edx
  8020ca:	48 8b 45 f0          	mov    -0x10(%rbp),%rax
  8020ce:	0f b6 00             	movzbl (%rax),%eax
  8020d1:	38 c2                	cmp    %al,%dl
  8020d3:	74 cd                	je     8020a2 <strncmp+0x16>
		n--, p++, q++;
	if (n == 0)
  8020d5:	48 83 7d e8 00       	cmpq   $0x0,-0x18(%rbp)
  8020da:	75 07                	jne    8020e3 <strncmp+0x57>
		return 0;
  8020dc:	b8 00 00 00 00       	mov    $0x0,%eax
  8020e1:	eb 18                	jmp    8020fb <strncmp+0x6f>
	else
		return (int) ((unsigned char) *p - (unsigned char) *q);
  8020e3:	48 8b 45 f8          	mov    -0x8(%rbp),%rax
  8020e7:	0f b6 00             	movzbl (%rax),%eax
  8020ea:	0f b6 d0             	movzbl %al,%edx
  8020ed:	48 8b 45 f0          	mov    -0x10(%rbp),%rax
  8020f1:	0f b6 00             	movzbl (%rax),%eax
  8020f4:	0f b6 c0             	movzbl %al,%eax
  8020f7:	29 c2                	sub    %eax,%edx
  8020f9:	89 d0                	mov    %edx,%eax
}
  8020fb:	c9                   	leaveq 
  8020fc:	c3                   	retq   

00000000008020fd <strchr>:

// Return a pointer to the first occurrence of 'c' in 's',
// or a null pointer if the string has no 'c'.
char *
strchr(const char *s, char c)
{
  8020fd:	55                   	push   %rbp
  8020fe:	48 89 e5             	mov    %rsp,%rbp
  802101:	48 83 ec 0c          	sub    $0xc,%rsp
  802105:	48 89 7d f8          	mov    %rdi,-0x8(%rbp)
  802109:	89 f0                	mov    %esi,%eax
  80210b:	88 45 f4             	mov    %al,-0xc(%rbp)
	for (; *s; s++)
  80210e:	eb 17                	jmp    802127 <strchr+0x2a>
		if (*s == c)
  802110:	48 8b 45 f8          	mov    -0x8(%rbp),%rax
  802114:	0f b6 00             	movzbl (%rax),%eax
  802117:	3a 45 f4             	cmp    -0xc(%rbp),%al
  80211a:	75 06                	jne    802122 <strchr+0x25>
			return (char *) s;
  80211c:	48 8b 45 f8          	mov    -0x8(%rbp),%rax
  802120:	eb 15                	jmp    802137 <strchr+0x3a>
// Return a pointer to the first occurrence of 'c' in 's',
// or a null pointer if the string has no 'c'.
char *
strchr(const char *s, char c)
{
	for (; *s; s++)
  802122:	48 83 45 f8 01       	addq   $0x1,-0x8(%rbp)
  802127:	48 8b 45 f8          	mov    -0x8(%rbp),%rax
  80212b:	0f b6 00             	movzbl (%rax),%eax
  80212e:	84 c0                	test   %al,%al
  802130:	75 de                	jne    802110 <strchr+0x13>
		if (*s == c)
			return (char *) s;
	return 0;
  802132:	b8 00 00 00 00       	mov    $0x0,%eax
}
  802137:	c9                   	leaveq 
  802138:	c3                   	retq   

0000000000802139 <strfind>:

// Return a pointer to the first occurrence of 'c' in 's',
// or a pointer to the string-ending null character if the string has no 'c'.
char *
strfind(const char *s, char c)
{
  802139:	55                   	push   %rbp
  80213a:	48 89 e5             	mov    %rsp,%rbp
  80213d:	48 83 ec 0c          	sub    $0xc,%rsp
  802141:	48 89 7d f8          	mov    %rdi,-0x8(%rbp)
  802145:	89 f0                	mov    %esi,%eax
  802147:	88 45 f4             	mov    %al,-0xc(%rbp)
	for (; *s; s++)
  80214a:	eb 13                	jmp    80215f <strfind+0x26>
		if (*s == c)
  80214c:	48 8b 45 f8          	mov    -0x8(%rbp),%rax
  802150:	0f b6 00             	movzbl (%rax),%eax
  802153:	3a 45 f4             	cmp    -0xc(%rbp),%al
  802156:	75 02                	jne    80215a <strfind+0x21>
			break;
  802158:	eb 10                	jmp    80216a <strfind+0x31>
// Return a pointer to the first occurrence of 'c' in 's',
// or a pointer to the string-ending null character if the string has no 'c'.
char *
strfind(const char *s, char c)
{
	for (; *s; s++)
  80215a:	48 83 45 f8 01       	addq   $0x1,-0x8(%rbp)
  80215f:	48 8b 45 f8          	mov    -0x8(%rbp),%rax
  802163:	0f b6 00             	movzbl (%rax),%eax
  802166:	84 c0                	test   %al,%al
  802168:	75 e2                	jne    80214c <strfind+0x13>
		if (*s == c)
			break;
	return (char *) s;
  80216a:	48 8b 45 f8          	mov    -0x8(%rbp),%rax
}
  80216e:	c9                   	leaveq 
  80216f:	c3                   	retq   

0000000000802170 <memset>:

#if ASM
void *
memset(void *v, int c, size_t n)
{
  802170:	55                   	push   %rbp
  802171:	48 89 e5             	mov    %rsp,%rbp
  802174:	48 83 ec 18          	sub    $0x18,%rsp
  802178:	48 89 7d f8          	mov    %rdi,-0x8(%rbp)
  80217c:	89 75 f4             	mov    %esi,-0xc(%rbp)
  80217f:	48 89 55 e8          	mov    %rdx,-0x18(%rbp)
	char *p;

	if (n == 0)
  802183:	48 83 7d e8 00       	cmpq   $0x0,-0x18(%rbp)
  802188:	75 06                	jne    802190 <memset+0x20>
		return v;
  80218a:	48 8b 45 f8          	mov    -0x8(%rbp),%rax
  80218e:	eb 69                	jmp    8021f9 <memset+0x89>
	if ((int64_t)v%4 == 0 && n%4 == 0) {
  802190:	48 8b 45 f8          	mov    -0x8(%rbp),%rax
  802194:	83 e0 03             	and    $0x3,%eax
  802197:	48 85 c0             	test   %rax,%rax
  80219a:	75 48                	jne    8021e4 <memset+0x74>
  80219c:	48 8b 45 e8          	mov    -0x18(%rbp),%rax
  8021a0:	83 e0 03             	and    $0x3,%eax
  8021a3:	48 85 c0             	test   %rax,%rax
  8021a6:	75 3c                	jne    8021e4 <memset+0x74>
		c &= 0xFF;
  8021a8:	81 65 f4 ff 00 00 00 	andl   $0xff,-0xc(%rbp)
		c = (c<<24)|(c<<16)|(c<<8)|c;
  8021af:	8b 45 f4             	mov    -0xc(%rbp),%eax
  8021b2:	c1 e0 18             	shl    $0x18,%eax
  8021b5:	89 c2                	mov    %eax,%edx
  8021b7:	8b 45 f4             	mov    -0xc(%rbp),%eax
  8021ba:	c1 e0 10             	shl    $0x10,%eax
  8021bd:	09 c2                	or     %eax,%edx
  8021bf:	8b 45 f4             	mov    -0xc(%rbp),%eax
  8021c2:	c1 e0 08             	shl    $0x8,%eax
  8021c5:	09 d0                	or     %edx,%eax
  8021c7:	09 45 f4             	or     %eax,-0xc(%rbp)
		asm volatile("cld; rep stosl\n"
			     :: "D" (v), "a" (c), "c" (n/4)
  8021ca:	48 8b 45 e8          	mov    -0x18(%rbp),%rax
  8021ce:	48 c1 e8 02          	shr    $0x2,%rax
  8021d2:	48 89 c1             	mov    %rax,%rcx
	if (n == 0)
		return v;
	if ((int64_t)v%4 == 0 && n%4 == 0) {
		c &= 0xFF;
		c = (c<<24)|(c<<16)|(c<<8)|c;
		asm volatile("cld; rep stosl\n"
  8021d5:	48 8b 55 f8          	mov    -0x8(%rbp),%rdx
  8021d9:	8b 45 f4             	mov    -0xc(%rbp),%eax
  8021dc:	48 89 d7             	mov    %rdx,%rdi
  8021df:	fc                   	cld    
  8021e0:	f3 ab                	rep stos %eax,%es:(%rdi)
  8021e2:	eb 11                	jmp    8021f5 <memset+0x85>
			     :: "D" (v), "a" (c), "c" (n/4)
			     : "cc", "memory");
	} else
		asm volatile("cld; rep stosb\n"
  8021e4:	48 8b 55 f8          	mov    -0x8(%rbp),%rdx
  8021e8:	8b 45 f4             	mov    -0xc(%rbp),%eax
  8021eb:	48 8b 4d e8          	mov    -0x18(%rbp),%rcx
  8021ef:	48 89 d7             	mov    %rdx,%rdi
  8021f2:	fc                   	cld    
  8021f3:	f3 aa                	rep stos %al,%es:(%rdi)
			     :: "D" (v), "a" (c), "c" (n)
			     : "cc", "memory");
	return v;
  8021f5:	48 8b 45 f8          	mov    -0x8(%rbp),%rax
}
  8021f9:	c9                   	leaveq 
  8021fa:	c3                   	retq   

00000000008021fb <memmove>:

void *
memmove(void *dst, const void *src, size_t n)
{
  8021fb:	55                   	push   %rbp
  8021fc:	48 89 e5             	mov    %rsp,%rbp
  8021ff:	48 83 ec 28          	sub    $0x28,%rsp
  802203:	48 89 7d e8          	mov    %rdi,-0x18(%rbp)
  802207:	48 89 75 e0          	mov    %rsi,-0x20(%rbp)
  80220b:	48 89 55 d8          	mov    %rdx,-0x28(%rbp)
	const char *s;
	char *d;

	s = src;
  80220f:	48 8b 45 e0          	mov    -0x20(%rbp),%rax
  802213:	48 89 45 f8          	mov    %rax,-0x8(%rbp)
	d = dst;
  802217:	48 8b 45 e8          	mov    -0x18(%rbp),%rax
  80221b:	48 89 45 f0          	mov    %rax,-0x10(%rbp)
	if (s < d && s + n > d) {
  80221f:	48 8b 45 f8          	mov    -0x8(%rbp),%rax
  802223:	48 3b 45 f0          	cmp    -0x10(%rbp),%rax
  802227:	0f 83 88 00 00 00    	jae    8022b5 <memmove+0xba>
  80222d:	48 8b 45 d8          	mov    -0x28(%rbp),%rax
  802231:	48 8b 55 f8          	mov    -0x8(%rbp),%rdx
  802235:	48 01 d0             	add    %rdx,%rax
  802238:	48 3b 45 f0          	cmp    -0x10(%rbp),%rax
  80223c:	76 77                	jbe    8022b5 <memmove+0xba>
		s += n;
  80223e:	48 8b 45 d8          	mov    -0x28(%rbp),%rax
  802242:	48 01 45 f8          	add    %rax,-0x8(%rbp)
		d += n;
  802246:	48 8b 45 d8          	mov    -0x28(%rbp),%rax
  80224a:	48 01 45 f0          	add    %rax,-0x10(%rbp)
		if ((int64_t)s%4 == 0 && (int64_t)d%4 == 0 && n%4 == 0)
  80224e:	48 8b 45 f8          	mov    -0x8(%rbp),%rax
  802252:	83 e0 03             	and    $0x3,%eax
  802255:	48 85 c0             	test   %rax,%rax
  802258:	75 3b                	jne    802295 <memmove+0x9a>
  80225a:	48 8b 45 f0          	mov    -0x10(%rbp),%rax
  80225e:	83 e0 03             	and    $0x3,%eax
  802261:	48 85 c0             	test   %rax,%rax
  802264:	75 2f                	jne    802295 <memmove+0x9a>
  802266:	48 8b 45 d8          	mov    -0x28(%rbp),%rax
  80226a:	83 e0 03             	and    $0x3,%eax
  80226d:	48 85 c0             	test   %rax,%rax
  802270:	75 23                	jne    802295 <memmove+0x9a>
			asm volatile("std; rep movsl\n"
				     :: "D" (d-4), "S" (s-4), "c" (n/4) : "cc", "memory");
  802272:	48 8b 45 f0          	mov    -0x10(%rbp),%rax
  802276:	48 83 e8 04          	sub    $0x4,%rax
  80227a:	48 8b 55 f8          	mov    -0x8(%rbp),%rdx
  80227e:	48 83 ea 04          	sub    $0x4,%rdx
  802282:	48 8b 4d d8          	mov    -0x28(%rbp),%rcx
  802286:	48 c1 e9 02          	shr    $0x2,%rcx
	d = dst;
	if (s < d && s + n > d) {
		s += n;
		d += n;
		if ((int64_t)s%4 == 0 && (int64_t)d%4 == 0 && n%4 == 0)
			asm volatile("std; rep movsl\n"
  80228a:	48 89 c7             	mov    %rax,%rdi
  80228d:	48 89 d6             	mov    %rdx,%rsi
  802290:	fd                   	std    
  802291:	f3 a5                	rep movsl %ds:(%rsi),%es:(%rdi)
  802293:	eb 1d                	jmp    8022b2 <memmove+0xb7>
				     :: "D" (d-4), "S" (s-4), "c" (n/4) : "cc", "memory");
		else
			asm volatile("std; rep movsb\n"
				     :: "D" (d-1), "S" (s-1), "c" (n) : "cc", "memory");
  802295:	48 8b 45 f0          	mov    -0x10(%rbp),%rax
  802299:	48 8d 50 ff          	lea    -0x1(%rax),%rdx
  80229d:	48 8b 45 f8          	mov    -0x8(%rbp),%rax
  8022a1:	48 8d 70 ff          	lea    -0x1(%rax),%rsi
		d += n;
		if ((int64_t)s%4 == 0 && (int64_t)d%4 == 0 && n%4 == 0)
			asm volatile("std; rep movsl\n"
				     :: "D" (d-4), "S" (s-4), "c" (n/4) : "cc", "memory");
		else
			asm volatile("std; rep movsb\n"
  8022a5:	48 8b 45 d8          	mov    -0x28(%rbp),%rax
  8022a9:	48 89 d7             	mov    %rdx,%rdi
  8022ac:	48 89 c1             	mov    %rax,%rcx
  8022af:	fd                   	std    
  8022b0:	f3 a4                	rep movsb %ds:(%rsi),%es:(%rdi)
				     :: "D" (d-1), "S" (s-1), "c" (n) : "cc", "memory");
		// Some versions of GCC rely on DF being clear
		asm volatile("cld" ::: "cc");
  8022b2:	fc                   	cld    
  8022b3:	eb 57                	jmp    80230c <memmove+0x111>
	} else {
		if ((int64_t)s%4 == 0 && (int64_t)d%4 == 0 && n%4 == 0)
  8022b5:	48 8b 45 f8          	mov    -0x8(%rbp),%rax
  8022b9:	83 e0 03             	and    $0x3,%eax
  8022bc:	48 85 c0             	test   %rax,%rax
  8022bf:	75 36                	jne    8022f7 <memmove+0xfc>
  8022c1:	48 8b 45 f0          	mov    -0x10(%rbp),%rax
  8022c5:	83 e0 03             	and    $0x3,%eax
  8022c8:	48 85 c0             	test   %rax,%rax
  8022cb:	75 2a                	jne    8022f7 <memmove+0xfc>
  8022cd:	48 8b 45 d8          	mov    -0x28(%rbp),%rax
  8022d1:	83 e0 03             	and    $0x3,%eax
  8022d4:	48 85 c0             	test   %rax,%rax
  8022d7:	75 1e                	jne    8022f7 <memmove+0xfc>
			asm volatile("cld; rep movsl\n"
				     :: "D" (d), "S" (s), "c" (n/4) : "cc", "memory");
  8022d9:	48 8b 45 d8          	mov    -0x28(%rbp),%rax
  8022dd:	48 c1 e8 02          	shr    $0x2,%rax
  8022e1:	48 89 c1             	mov    %rax,%rcx
				     :: "D" (d-1), "S" (s-1), "c" (n) : "cc", "memory");
		// Some versions of GCC rely on DF being clear
		asm volatile("cld" ::: "cc");
	} else {
		if ((int64_t)s%4 == 0 && (int64_t)d%4 == 0 && n%4 == 0)
			asm volatile("cld; rep movsl\n"
  8022e4:	48 8b 45 f0          	mov    -0x10(%rbp),%rax
  8022e8:	48 8b 55 f8          	mov    -0x8(%rbp),%rdx
  8022ec:	48 89 c7             	mov    %rax,%rdi
  8022ef:	48 89 d6             	mov    %rdx,%rsi
  8022f2:	fc                   	cld    
  8022f3:	f3 a5                	rep movsl %ds:(%rsi),%es:(%rdi)
  8022f5:	eb 15                	jmp    80230c <memmove+0x111>
				     :: "D" (d), "S" (s), "c" (n/4) : "cc", "memory");
		else
			asm volatile("cld; rep movsb\n"
  8022f7:	48 8b 45 f0          	mov    -0x10(%rbp),%rax
  8022fb:	48 8b 55 f8          	mov    -0x8(%rbp),%rdx
  8022ff:	48 8b 4d d8          	mov    -0x28(%rbp),%rcx
  802303:	48 89 c7             	mov    %rax,%rdi
  802306:	48 89 d6             	mov    %rdx,%rsi
  802309:	fc                   	cld    
  80230a:	f3 a4                	rep movsb %ds:(%rsi),%es:(%rdi)
				     :: "D" (d), "S" (s), "c" (n) : "cc", "memory");
	}
	return dst;
  80230c:	48 8b 45 e8          	mov    -0x18(%rbp),%rax
}
  802310:	c9                   	leaveq 
  802311:	c3                   	retq   

0000000000802312 <memcpy>:
}
#endif

void *
memcpy(void *dst, const void *src, size_t n)
{
  802312:	55                   	push   %rbp
  802313:	48 89 e5             	mov    %rsp,%rbp
  802316:	48 83 ec 18          	sub    $0x18,%rsp
  80231a:	48 89 7d f8          	mov    %rdi,-0x8(%rbp)
  80231e:	48 89 75 f0          	mov    %rsi,-0x10(%rbp)
  802322:	48 89 55 e8          	mov    %rdx,-0x18(%rbp)
	return memmove(dst, src, n);
  802326:	48 8b 55 e8          	mov    -0x18(%rbp),%rdx
  80232a:	48 8b 4d f0          	mov    -0x10(%rbp),%rcx
  80232e:	48 8b 45 f8          	mov    -0x8(%rbp),%rax
  802332:	48 89 ce             	mov    %rcx,%rsi
  802335:	48 89 c7             	mov    %rax,%rdi
  802338:	48 b8 fb 21 80 00 00 	movabs $0x8021fb,%rax
  80233f:	00 00 00 
  802342:	ff d0                	callq  *%rax
}
  802344:	c9                   	leaveq 
  802345:	c3                   	retq   

0000000000802346 <memcmp>:

int
memcmp(const void *v1, const void *v2, size_t n)
{
  802346:	55                   	push   %rbp
  802347:	48 89 e5             	mov    %rsp,%rbp
  80234a:	48 83 ec 28          	sub    $0x28,%rsp
  80234e:	48 89 7d e8          	mov    %rdi,-0x18(%rbp)
  802352:	48 89 75 e0          	mov    %rsi,-0x20(%rbp)
  802356:	48 89 55 d8          	mov    %rdx,-0x28(%rbp)
	const uint8_t *s1 = (const uint8_t *) v1;
  80235a:	48 8b 45 e8          	mov    -0x18(%rbp),%rax
  80235e:	48 89 45 f8          	mov    %rax,-0x8(%rbp)
	const uint8_t *s2 = (const uint8_t *) v2;
  802362:	48 8b 45 e0          	mov    -0x20(%rbp),%rax
  802366:	48 89 45 f0          	mov    %rax,-0x10(%rbp)

	while (n-- > 0) {
  80236a:	eb 36                	jmp    8023a2 <memcmp+0x5c>
		if (*s1 != *s2)
  80236c:	48 8b 45 f8          	mov    -0x8(%rbp),%rax
  802370:	0f b6 10             	movzbl (%rax),%edx
  802373:	48 8b 45 f0          	mov    -0x10(%rbp),%rax
  802377:	0f b6 00             	movzbl (%rax),%eax
  80237a:	38 c2                	cmp    %al,%dl
  80237c:	74 1a                	je     802398 <memcmp+0x52>
			return (int) *s1 - (int) *s2;
  80237e:	48 8b 45 f8          	mov    -0x8(%rbp),%rax
  802382:	0f b6 00             	movzbl (%rax),%eax
  802385:	0f b6 d0             	movzbl %al,%edx
  802388:	48 8b 45 f0          	mov    -0x10(%rbp),%rax
  80238c:	0f b6 00             	movzbl (%rax),%eax
  80238f:	0f b6 c0             	movzbl %al,%eax
  802392:	29 c2                	sub    %eax,%edx
  802394:	89 d0                	mov    %edx,%eax
  802396:	eb 20                	jmp    8023b8 <memcmp+0x72>
		s1++, s2++;
  802398:	48 83 45 f8 01       	addq   $0x1,-0x8(%rbp)
  80239d:	48 83 45 f0 01       	addq   $0x1,-0x10(%rbp)
memcmp(const void *v1, const void *v2, size_t n)
{
	const uint8_t *s1 = (const uint8_t *) v1;
	const uint8_t *s2 = (const uint8_t *) v2;

	while (n-- > 0) {
  8023a2:	48 8b 45 d8          	mov    -0x28(%rbp),%rax
  8023a6:	48 8d 50 ff          	lea    -0x1(%rax),%rdx
  8023aa:	48 89 55 d8          	mov    %rdx,-0x28(%rbp)
  8023ae:	48 85 c0             	test   %rax,%rax
  8023b1:	75 b9                	jne    80236c <memcmp+0x26>
		if (*s1 != *s2)
			return (int) *s1 - (int) *s2;
		s1++, s2++;
	}

	return 0;
  8023b3:	b8 00 00 00 00       	mov    $0x0,%eax
}
  8023b8:	c9                   	leaveq 
  8023b9:	c3                   	retq   

00000000008023ba <memfind>:

void *
memfind(const void *s, int c, size_t n)
{
  8023ba:	55                   	push   %rbp
  8023bb:	48 89 e5             	mov    %rsp,%rbp
  8023be:	48 83 ec 28          	sub    $0x28,%rsp
  8023c2:	48 89 7d e8          	mov    %rdi,-0x18(%rbp)
  8023c6:	89 75 e4             	mov    %esi,-0x1c(%rbp)
  8023c9:	48 89 55 d8          	mov    %rdx,-0x28(%rbp)
	const void *ends = (const char *) s + n;
  8023cd:	48 8b 45 d8          	mov    -0x28(%rbp),%rax
  8023d1:	48 8b 55 e8          	mov    -0x18(%rbp),%rdx
  8023d5:	48 01 d0             	add    %rdx,%rax
  8023d8:	48 89 45 f8          	mov    %rax,-0x8(%rbp)
	for (; s < ends; s++)
  8023dc:	eb 15                	jmp    8023f3 <memfind+0x39>
		if (*(const unsigned char *) s == (unsigned char) c)
  8023de:	48 8b 45 e8          	mov    -0x18(%rbp),%rax
  8023e2:	0f b6 10             	movzbl (%rax),%edx
  8023e5:	8b 45 e4             	mov    -0x1c(%rbp),%eax
  8023e8:	38 c2                	cmp    %al,%dl
  8023ea:	75 02                	jne    8023ee <memfind+0x34>
			break;
  8023ec:	eb 0f                	jmp    8023fd <memfind+0x43>

void *
memfind(const void *s, int c, size_t n)
{
	const void *ends = (const char *) s + n;
	for (; s < ends; s++)
  8023ee:	48 83 45 e8 01       	addq   $0x1,-0x18(%rbp)
  8023f3:	48 8b 45 e8          	mov    -0x18(%rbp),%rax
  8023f7:	48 3b 45 f8          	cmp    -0x8(%rbp),%rax
  8023fb:	72 e1                	jb     8023de <memfind+0x24>
		if (*(const unsigned char *) s == (unsigned char) c)
			break;
	return (void *) s;
  8023fd:	48 8b 45 e8          	mov    -0x18(%rbp),%rax
}
  802401:	c9                   	leaveq 
  802402:	c3                   	retq   

0000000000802403 <strtol>:

long
strtol(const char *s, char **endptr, int base)
{
  802403:	55                   	push   %rbp
  802404:	48 89 e5             	mov    %rsp,%rbp
  802407:	48 83 ec 34          	sub    $0x34,%rsp
  80240b:	48 89 7d d8          	mov    %rdi,-0x28(%rbp)
  80240f:	48 89 75 d0          	mov    %rsi,-0x30(%rbp)
  802413:	89 55 cc             	mov    %edx,-0x34(%rbp)
	int neg = 0;
  802416:	c7 45 fc 00 00 00 00 	movl   $0x0,-0x4(%rbp)
	long val = 0;
  80241d:	48 c7 45 f0 00 00 00 	movq   $0x0,-0x10(%rbp)
  802424:	00 

	// gobble initial whitespace
	while (*s == ' ' || *s == '\t')
  802425:	eb 05                	jmp    80242c <strtol+0x29>
		s++;
  802427:	48 83 45 d8 01       	addq   $0x1,-0x28(%rbp)
{
	int neg = 0;
	long val = 0;

	// gobble initial whitespace
	while (*s == ' ' || *s == '\t')
  80242c:	48 8b 45 d8          	mov    -0x28(%rbp),%rax
  802430:	0f b6 00             	movzbl (%rax),%eax
  802433:	3c 20                	cmp    $0x20,%al
  802435:	74 f0                	je     802427 <strtol+0x24>
  802437:	48 8b 45 d8          	mov    -0x28(%rbp),%rax
  80243b:	0f b6 00             	movzbl (%rax),%eax
  80243e:	3c 09                	cmp    $0x9,%al
  802440:	74 e5                	je     802427 <strtol+0x24>
		s++;

	// plus/minus sign
	if (*s == '+')
  802442:	48 8b 45 d8          	mov    -0x28(%rbp),%rax
  802446:	0f b6 00             	movzbl (%rax),%eax
  802449:	3c 2b                	cmp    $0x2b,%al
  80244b:	75 07                	jne    802454 <strtol+0x51>
		s++;
  80244d:	48 83 45 d8 01       	addq   $0x1,-0x28(%rbp)
  802452:	eb 17                	jmp    80246b <strtol+0x68>
	else if (*s == '-')
  802454:	48 8b 45 d8          	mov    -0x28(%rbp),%rax
  802458:	0f b6 00             	movzbl (%rax),%eax
  80245b:	3c 2d                	cmp    $0x2d,%al
  80245d:	75 0c                	jne    80246b <strtol+0x68>
		s++, neg = 1;
  80245f:	48 83 45 d8 01       	addq   $0x1,-0x28(%rbp)
  802464:	c7 45 fc 01 00 00 00 	movl   $0x1,-0x4(%rbp)

	// hex or octal base prefix
	if ((base == 0 || base == 16) && (s[0] == '0' && s[1] == 'x'))
  80246b:	83 7d cc 00          	cmpl   $0x0,-0x34(%rbp)
  80246f:	74 06                	je     802477 <strtol+0x74>
  802471:	83 7d cc 10          	cmpl   $0x10,-0x34(%rbp)
  802475:	75 28                	jne    80249f <strtol+0x9c>
  802477:	48 8b 45 d8          	mov    -0x28(%rbp),%rax
  80247b:	0f b6 00             	movzbl (%rax),%eax
  80247e:	3c 30                	cmp    $0x30,%al
  802480:	75 1d                	jne    80249f <strtol+0x9c>
  802482:	48 8b 45 d8          	mov    -0x28(%rbp),%rax
  802486:	48 83 c0 01          	add    $0x1,%rax
  80248a:	0f b6 00             	movzbl (%rax),%eax
  80248d:	3c 78                	cmp    $0x78,%al
  80248f:	75 0e                	jne    80249f <strtol+0x9c>
		s += 2, base = 16;
  802491:	48 83 45 d8 02       	addq   $0x2,-0x28(%rbp)
  802496:	c7 45 cc 10 00 00 00 	movl   $0x10,-0x34(%rbp)
  80249d:	eb 2c                	jmp    8024cb <strtol+0xc8>
	else if (base == 0 && s[0] == '0')
  80249f:	83 7d cc 00          	cmpl   $0x0,-0x34(%rbp)
  8024a3:	75 19                	jne    8024be <strtol+0xbb>
  8024a5:	48 8b 45 d8          	mov    -0x28(%rbp),%rax
  8024a9:	0f b6 00             	movzbl (%rax),%eax
  8024ac:	3c 30                	cmp    $0x30,%al
  8024ae:	75 0e                	jne    8024be <strtol+0xbb>
		s++, base = 8;
  8024b0:	48 83 45 d8 01       	addq   $0x1,-0x28(%rbp)
  8024b5:	c7 45 cc 08 00 00 00 	movl   $0x8,-0x34(%rbp)
  8024bc:	eb 0d                	jmp    8024cb <strtol+0xc8>
	else if (base == 0)
  8024be:	83 7d cc 00          	cmpl   $0x0,-0x34(%rbp)
  8024c2:	75 07                	jne    8024cb <strtol+0xc8>
		base = 10;
  8024c4:	c7 45 cc 0a 00 00 00 	movl   $0xa,-0x34(%rbp)

	// digits
	while (1) {
		int dig;

		if (*s >= '0' && *s <= '9')
  8024cb:	48 8b 45 d8          	mov    -0x28(%rbp),%rax
  8024cf:	0f b6 00             	movzbl (%rax),%eax
  8024d2:	3c 2f                	cmp    $0x2f,%al
  8024d4:	7e 1d                	jle    8024f3 <strtol+0xf0>
  8024d6:	48 8b 45 d8          	mov    -0x28(%rbp),%rax
  8024da:	0f b6 00             	movzbl (%rax),%eax
  8024dd:	3c 39                	cmp    $0x39,%al
  8024df:	7f 12                	jg     8024f3 <strtol+0xf0>
			dig = *s - '0';
  8024e1:	48 8b 45 d8          	mov    -0x28(%rbp),%rax
  8024e5:	0f b6 00             	movzbl (%rax),%eax
  8024e8:	0f be c0             	movsbl %al,%eax
  8024eb:	83 e8 30             	sub    $0x30,%eax
  8024ee:	89 45 ec             	mov    %eax,-0x14(%rbp)
  8024f1:	eb 4e                	jmp    802541 <strtol+0x13e>
		else if (*s >= 'a' && *s <= 'z')
  8024f3:	48 8b 45 d8          	mov    -0x28(%rbp),%rax
  8024f7:	0f b6 00             	movzbl (%rax),%eax
  8024fa:	3c 60                	cmp    $0x60,%al
  8024fc:	7e 1d                	jle    80251b <strtol+0x118>
  8024fe:	48 8b 45 d8          	mov    -0x28(%rbp),%rax
  802502:	0f b6 00             	movzbl (%rax),%eax
  802505:	3c 7a                	cmp    $0x7a,%al
  802507:	7f 12                	jg     80251b <strtol+0x118>
			dig = *s - 'a' + 10;
  802509:	48 8b 45 d8          	mov    -0x28(%rbp),%rax
  80250d:	0f b6 00             	movzbl (%rax),%eax
  802510:	0f be c0             	movsbl %al,%eax
  802513:	83 e8 57             	sub    $0x57,%eax
  802516:	89 45 ec             	mov    %eax,-0x14(%rbp)
  802519:	eb 26                	jmp    802541 <strtol+0x13e>
		else if (*s >= 'A' && *s <= 'Z')
  80251b:	48 8b 45 d8          	mov    -0x28(%rbp),%rax
  80251f:	0f b6 00             	movzbl (%rax),%eax
  802522:	3c 40                	cmp    $0x40,%al
  802524:	7e 48                	jle    80256e <strtol+0x16b>
  802526:	48 8b 45 d8          	mov    -0x28(%rbp),%rax
  80252a:	0f b6 00             	movzbl (%rax),%eax
  80252d:	3c 5a                	cmp    $0x5a,%al
  80252f:	7f 3d                	jg     80256e <strtol+0x16b>
			dig = *s - 'A' + 10;
  802531:	48 8b 45 d8          	mov    -0x28(%rbp),%rax
  802535:	0f b6 00             	movzbl (%rax),%eax
  802538:	0f be c0             	movsbl %al,%eax
  80253b:	83 e8 37             	sub    $0x37,%eax
  80253e:	89 45 ec             	mov    %eax,-0x14(%rbp)
		else
			break;
		if (dig >= base)
  802541:	8b 45 ec             	mov    -0x14(%rbp),%eax
  802544:	3b 45 cc             	cmp    -0x34(%rbp),%eax
  802547:	7c 02                	jl     80254b <strtol+0x148>
			break;
  802549:	eb 23                	jmp    80256e <strtol+0x16b>
		s++, val = (val * base) + dig;
  80254b:	48 83 45 d8 01       	addq   $0x1,-0x28(%rbp)
  802550:	8b 45 cc             	mov    -0x34(%rbp),%eax
  802553:	48 98                	cltq   
  802555:	48 0f af 45 f0       	imul   -0x10(%rbp),%rax
  80255a:	48 89 c2             	mov    %rax,%rdx
  80255d:	8b 45 ec             	mov    -0x14(%rbp),%eax
  802560:	48 98                	cltq   
  802562:	48 01 d0             	add    %rdx,%rax
  802565:	48 89 45 f0          	mov    %rax,-0x10(%rbp)
		// we don't properly detect overflow!
	}
  802569:	e9 5d ff ff ff       	jmpq   8024cb <strtol+0xc8>

	if (endptr)
  80256e:	48 83 7d d0 00       	cmpq   $0x0,-0x30(%rbp)
  802573:	74 0b                	je     802580 <strtol+0x17d>
		*endptr = (char *) s;
  802575:	48 8b 45 d0          	mov    -0x30(%rbp),%rax
  802579:	48 8b 55 d8          	mov    -0x28(%rbp),%rdx
  80257d:	48 89 10             	mov    %rdx,(%rax)
	return (neg ? -val : val);
  802580:	83 7d fc 00          	cmpl   $0x0,-0x4(%rbp)
  802584:	74 09                	je     80258f <strtol+0x18c>
  802586:	48 8b 45 f0          	mov    -0x10(%rbp),%rax
  80258a:	48 f7 d8             	neg    %rax
  80258d:	eb 04                	jmp    802593 <strtol+0x190>
  80258f:	48 8b 45 f0          	mov    -0x10(%rbp),%rax
}
  802593:	c9                   	leaveq 
  802594:	c3                   	retq   

0000000000802595 <strstr>:

char * strstr(const char *in, const char *str)
{
  802595:	55                   	push   %rbp
  802596:	48 89 e5             	mov    %rsp,%rbp
  802599:	48 83 ec 30          	sub    $0x30,%rsp
  80259d:	48 89 7d d8          	mov    %rdi,-0x28(%rbp)
  8025a1:	48 89 75 d0          	mov    %rsi,-0x30(%rbp)
	char c;
	size_t len;

	c = *str++;
  8025a5:	48 8b 45 d0          	mov    -0x30(%rbp),%rax
  8025a9:	48 8d 50 01          	lea    0x1(%rax),%rdx
  8025ad:	48 89 55 d0          	mov    %rdx,-0x30(%rbp)
  8025b1:	0f b6 00             	movzbl (%rax),%eax
  8025b4:	88 45 ff             	mov    %al,-0x1(%rbp)
	if (!c)
  8025b7:	80 7d ff 00          	cmpb   $0x0,-0x1(%rbp)
  8025bb:	75 06                	jne    8025c3 <strstr+0x2e>
		return (char *) in;	// Trivial empty string case
  8025bd:	48 8b 45 d8          	mov    -0x28(%rbp),%rax
  8025c1:	eb 6b                	jmp    80262e <strstr+0x99>

	len = strlen(str);
  8025c3:	48 8b 45 d0          	mov    -0x30(%rbp),%rax
  8025c7:	48 89 c7             	mov    %rax,%rdi
  8025ca:	48 b8 6b 1e 80 00 00 	movabs $0x801e6b,%rax
  8025d1:	00 00 00 
  8025d4:	ff d0                	callq  *%rax
  8025d6:	48 98                	cltq   
  8025d8:	48 89 45 f0          	mov    %rax,-0x10(%rbp)
	do {
		char sc;

		do {
			sc = *in++;
  8025dc:	48 8b 45 d8          	mov    -0x28(%rbp),%rax
  8025e0:	48 8d 50 01          	lea    0x1(%rax),%rdx
  8025e4:	48 89 55 d8          	mov    %rdx,-0x28(%rbp)
  8025e8:	0f b6 00             	movzbl (%rax),%eax
  8025eb:	88 45 ef             	mov    %al,-0x11(%rbp)
			if (!sc)
  8025ee:	80 7d ef 00          	cmpb   $0x0,-0x11(%rbp)
  8025f2:	75 07                	jne    8025fb <strstr+0x66>
				return (char *) 0;
  8025f4:	b8 00 00 00 00       	mov    $0x0,%eax
  8025f9:	eb 33                	jmp    80262e <strstr+0x99>
		} while (sc != c);
  8025fb:	0f b6 45 ef          	movzbl -0x11(%rbp),%eax
  8025ff:	3a 45 ff             	cmp    -0x1(%rbp),%al
  802602:	75 d8                	jne    8025dc <strstr+0x47>
	} while (strncmp(in, str, len) != 0);
  802604:	48 8b 55 f0          	mov    -0x10(%rbp),%rdx
  802608:	48 8b 4d d0          	mov    -0x30(%rbp),%rcx
  80260c:	48 8b 45 d8          	mov    -0x28(%rbp),%rax
  802610:	48 89 ce             	mov    %rcx,%rsi
  802613:	48 89 c7             	mov    %rax,%rdi
  802616:	48 b8 8c 20 80 00 00 	movabs $0x80208c,%rax
  80261d:	00 00 00 
  802620:	ff d0                	callq  *%rax
  802622:	85 c0                	test   %eax,%eax
  802624:	75 b6                	jne    8025dc <strstr+0x47>

	return (char *) (in - 1);
  802626:	48 8b 45 d8          	mov    -0x28(%rbp),%rax
  80262a:	48 83 e8 01          	sub    $0x1,%rax
}
  80262e:	c9                   	leaveq 
  80262f:	c3                   	retq   

0000000000802630 <syscall>:
#include <inc/syscall.h>
#include <inc/lib.h>

static inline int64_t
syscall(int num, int check, uint64_t a1, uint64_t a2, uint64_t a3, uint64_t a4, uint64_t a5)
{
  802630:	55                   	push   %rbp
  802631:	48 89 e5             	mov    %rsp,%rbp
  802634:	53                   	push   %rbx
  802635:	48 83 ec 48          	sub    $0x48,%rsp
  802639:	89 7d dc             	mov    %edi,-0x24(%rbp)
  80263c:	89 75 d8             	mov    %esi,-0x28(%rbp)
  80263f:	48 89 55 d0          	mov    %rdx,-0x30(%rbp)
  802643:	48 89 4d c8          	mov    %rcx,-0x38(%rbp)
  802647:	4c 89 45 c0          	mov    %r8,-0x40(%rbp)
  80264b:	4c 89 4d b8          	mov    %r9,-0x48(%rbp)
	//
	// The last clause tells the assembler that this can
	// potentially change the condition codes and arbitrary
	// memory locations.

	asm volatile("int %1\n"
  80264f:	8b 45 dc             	mov    -0x24(%rbp),%eax
  802652:	48 8b 55 d0          	mov    -0x30(%rbp),%rdx
  802656:	48 8b 4d c8          	mov    -0x38(%rbp),%rcx
  80265a:	4c 8b 45 c0          	mov    -0x40(%rbp),%r8
  80265e:	48 8b 7d b8          	mov    -0x48(%rbp),%rdi
  802662:	48 8b 75 10          	mov    0x10(%rbp),%rsi
  802666:	4c 89 c3             	mov    %r8,%rbx
  802669:	cd 30                	int    $0x30
  80266b:	48 89 45 e8          	mov    %rax,-0x18(%rbp)
		       "b" (a3),
		       "D" (a4),
		       "S" (a5)
		     : "cc", "memory");

	if(check && ret > 0)
  80266f:	83 7d d8 00          	cmpl   $0x0,-0x28(%rbp)
  802673:	74 3e                	je     8026b3 <syscall+0x83>
  802675:	48 83 7d e8 00       	cmpq   $0x0,-0x18(%rbp)
  80267a:	7e 37                	jle    8026b3 <syscall+0x83>
		panic("syscall %d returned %d (> 0)", num, ret);
  80267c:	48 8b 55 e8          	mov    -0x18(%rbp),%rdx
  802680:	8b 45 dc             	mov    -0x24(%rbp),%eax
  802683:	49 89 d0             	mov    %rdx,%r8
  802686:	89 c1                	mov    %eax,%ecx
  802688:	48 ba c8 12 82 00 00 	movabs $0x8212c8,%rdx
  80268f:	00 00 00 
  802692:	be 24 00 00 00       	mov    $0x24,%esi
  802697:	48 bf e5 12 82 00 00 	movabs $0x8212e5,%rdi
  80269e:	00 00 00 
  8026a1:	b8 00 00 00 00       	mov    $0x0,%eax
  8026a6:	49 b9 e9 10 80 00 00 	movabs $0x8010e9,%r9
  8026ad:	00 00 00 
  8026b0:	41 ff d1             	callq  *%r9

	return ret;
  8026b3:	48 8b 45 e8          	mov    -0x18(%rbp),%rax
}
  8026b7:	48 83 c4 48          	add    $0x48,%rsp
  8026bb:	5b                   	pop    %rbx
  8026bc:	5d                   	pop    %rbp
  8026bd:	c3                   	retq   

00000000008026be <sys_cputs>:

void
sys_cputs(const char *s, size_t len)
{
  8026be:	55                   	push   %rbp
  8026bf:	48 89 e5             	mov    %rsp,%rbp
  8026c2:	48 83 ec 20          	sub    $0x20,%rsp
  8026c6:	48 89 7d f8          	mov    %rdi,-0x8(%rbp)
  8026ca:	48 89 75 f0          	mov    %rsi,-0x10(%rbp)
	syscall(SYS_cputs, 0, (uint64_t)s, len, 0, 0, 0);
  8026ce:	48 8b 45 f8          	mov    -0x8(%rbp),%rax
  8026d2:	48 8b 55 f0          	mov    -0x10(%rbp),%rdx
  8026d6:	48 c7 04 24 00 00 00 	movq   $0x0,(%rsp)
  8026dd:	00 
  8026de:	41 b9 00 00 00 00    	mov    $0x0,%r9d
  8026e4:	41 b8 00 00 00 00    	mov    $0x0,%r8d
  8026ea:	48 89 d1             	mov    %rdx,%rcx
  8026ed:	48 89 c2             	mov    %rax,%rdx
  8026f0:	be 00 00 00 00       	mov    $0x0,%esi
  8026f5:	bf 00 00 00 00       	mov    $0x0,%edi
  8026fa:	48 b8 30 26 80 00 00 	movabs $0x802630,%rax
  802701:	00 00 00 
  802704:	ff d0                	callq  *%rax
}
  802706:	c9                   	leaveq 
  802707:	c3                   	retq   

0000000000802708 <sys_cgetc>:

int
sys_cgetc(void)
{
  802708:	55                   	push   %rbp
  802709:	48 89 e5             	mov    %rsp,%rbp
  80270c:	48 83 ec 10          	sub    $0x10,%rsp
	return syscall(SYS_cgetc, 0, 0, 0, 0, 0, 0);
  802710:	48 c7 04 24 00 00 00 	movq   $0x0,(%rsp)
  802717:	00 
  802718:	41 b9 00 00 00 00    	mov    $0x0,%r9d
  80271e:	41 b8 00 00 00 00    	mov    $0x0,%r8d
  802724:	b9 00 00 00 00       	mov    $0x0,%ecx
  802729:	ba 00 00 00 00       	mov    $0x0,%edx
  80272e:	be 00 00 00 00       	mov    $0x0,%esi
  802733:	bf 01 00 00 00       	mov    $0x1,%edi
  802738:	48 b8 30 26 80 00 00 	movabs $0x802630,%rax
  80273f:	00 00 00 
  802742:	ff d0                	callq  *%rax
}
  802744:	c9                   	leaveq 
  802745:	c3                   	retq   

0000000000802746 <sys_env_destroy>:

int
sys_env_destroy(envid_t envid)
{
  802746:	55                   	push   %rbp
  802747:	48 89 e5             	mov    %rsp,%rbp
  80274a:	48 83 ec 10          	sub    $0x10,%rsp
  80274e:	89 7d fc             	mov    %edi,-0x4(%rbp)
	return syscall(SYS_env_destroy, 1, envid, 0, 0, 0, 0);
  802751:	8b 45 fc             	mov    -0x4(%rbp),%eax
  802754:	48 98                	cltq   
  802756:	48 c7 04 24 00 00 00 	movq   $0x0,(%rsp)
  80275d:	00 
  80275e:	41 b9 00 00 00 00    	mov    $0x0,%r9d
  802764:	41 b8 00 00 00 00    	mov    $0x0,%r8d
  80276a:	b9 00 00 00 00       	mov    $0x0,%ecx
  80276f:	48 89 c2             	mov    %rax,%rdx
  802772:	be 01 00 00 00       	mov    $0x1,%esi
  802777:	bf 03 00 00 00       	mov    $0x3,%edi
  80277c:	48 b8 30 26 80 00 00 	movabs $0x802630,%rax
  802783:	00 00 00 
  802786:	ff d0                	callq  *%rax
}
  802788:	c9                   	leaveq 
  802789:	c3                   	retq   

000000000080278a <sys_getenvid>:

envid_t
sys_getenvid(void)
{
  80278a:	55                   	push   %rbp
  80278b:	48 89 e5             	mov    %rsp,%rbp
  80278e:	48 83 ec 10          	sub    $0x10,%rsp
	return syscall(SYS_getenvid, 0, 0, 0, 0, 0, 0);
  802792:	48 c7 04 24 00 00 00 	movq   $0x0,(%rsp)
  802799:	00 
  80279a:	41 b9 00 00 00 00    	mov    $0x0,%r9d
  8027a0:	41 b8 00 00 00 00    	mov    $0x0,%r8d
  8027a6:	b9 00 00 00 00       	mov    $0x0,%ecx
  8027ab:	ba 00 00 00 00       	mov    $0x0,%edx
  8027b0:	be 00 00 00 00       	mov    $0x0,%esi
  8027b5:	bf 02 00 00 00       	mov    $0x2,%edi
  8027ba:	48 b8 30 26 80 00 00 	movabs $0x802630,%rax
  8027c1:	00 00 00 
  8027c4:	ff d0                	callq  *%rax
}
  8027c6:	c9                   	leaveq 
  8027c7:	c3                   	retq   

00000000008027c8 <sys_yield>:


void
sys_yield(void)
{
  8027c8:	55                   	push   %rbp
  8027c9:	48 89 e5             	mov    %rsp,%rbp
  8027cc:	48 83 ec 10          	sub    $0x10,%rsp
	syscall(SYS_yield, 0, 0, 0, 0, 0, 0);
  8027d0:	48 c7 04 24 00 00 00 	movq   $0x0,(%rsp)
  8027d7:	00 
  8027d8:	41 b9 00 00 00 00    	mov    $0x0,%r9d
  8027de:	41 b8 00 00 00 00    	mov    $0x0,%r8d
  8027e4:	b9 00 00 00 00       	mov    $0x0,%ecx
  8027e9:	ba 00 00 00 00       	mov    $0x0,%edx
  8027ee:	be 00 00 00 00       	mov    $0x0,%esi
  8027f3:	bf 0b 00 00 00       	mov    $0xb,%edi
  8027f8:	48 b8 30 26 80 00 00 	movabs $0x802630,%rax
  8027ff:	00 00 00 
  802802:	ff d0                	callq  *%rax
}
  802804:	c9                   	leaveq 
  802805:	c3                   	retq   

0000000000802806 <sys_page_alloc>:

int
sys_page_alloc(envid_t envid, void *va, int perm)
{
  802806:	55                   	push   %rbp
  802807:	48 89 e5             	mov    %rsp,%rbp
  80280a:	48 83 ec 20          	sub    $0x20,%rsp
  80280e:	89 7d fc             	mov    %edi,-0x4(%rbp)
  802811:	48 89 75 f0          	mov    %rsi,-0x10(%rbp)
  802815:	89 55 f8             	mov    %edx,-0x8(%rbp)
	return syscall(SYS_page_alloc, 1, envid, (uint64_t) va, perm, 0, 0);
  802818:	8b 45 f8             	mov    -0x8(%rbp),%eax
  80281b:	48 63 c8             	movslq %eax,%rcx
  80281e:	48 8b 55 f0          	mov    -0x10(%rbp),%rdx
  802822:	8b 45 fc             	mov    -0x4(%rbp),%eax
  802825:	48 98                	cltq   
  802827:	48 c7 04 24 00 00 00 	movq   $0x0,(%rsp)
  80282e:	00 
  80282f:	41 b9 00 00 00 00    	mov    $0x0,%r9d
  802835:	49 89 c8             	mov    %rcx,%r8
  802838:	48 89 d1             	mov    %rdx,%rcx
  80283b:	48 89 c2             	mov    %rax,%rdx
  80283e:	be 01 00 00 00       	mov    $0x1,%esi
  802843:	bf 04 00 00 00       	mov    $0x4,%edi
  802848:	48 b8 30 26 80 00 00 	movabs $0x802630,%rax
  80284f:	00 00 00 
  802852:	ff d0                	callq  *%rax
}
  802854:	c9                   	leaveq 
  802855:	c3                   	retq   

0000000000802856 <sys_page_map>:

int
sys_page_map(envid_t srcenv, void *srcva, envid_t dstenv, void *dstva, int perm)
{
  802856:	55                   	push   %rbp
  802857:	48 89 e5             	mov    %rsp,%rbp
  80285a:	48 83 ec 30          	sub    $0x30,%rsp
  80285e:	89 7d fc             	mov    %edi,-0x4(%rbp)
  802861:	48 89 75 f0          	mov    %rsi,-0x10(%rbp)
  802865:	89 55 f8             	mov    %edx,-0x8(%rbp)
  802868:	48 89 4d e8          	mov    %rcx,-0x18(%rbp)
  80286c:	44 89 45 e4          	mov    %r8d,-0x1c(%rbp)
	return syscall(SYS_page_map, 1, srcenv, (uint64_t) srcva, dstenv, (uint64_t) dstva, perm);
  802870:	8b 45 e4             	mov    -0x1c(%rbp),%eax
  802873:	48 63 c8             	movslq %eax,%rcx
  802876:	48 8b 7d e8          	mov    -0x18(%rbp),%rdi
  80287a:	8b 45 f8             	mov    -0x8(%rbp),%eax
  80287d:	48 63 f0             	movslq %eax,%rsi
  802880:	48 8b 55 f0          	mov    -0x10(%rbp),%rdx
  802884:	8b 45 fc             	mov    -0x4(%rbp),%eax
  802887:	48 98                	cltq   
  802889:	48 89 0c 24          	mov    %rcx,(%rsp)
  80288d:	49 89 f9             	mov    %rdi,%r9
  802890:	49 89 f0             	mov    %rsi,%r8
  802893:	48 89 d1             	mov    %rdx,%rcx
  802896:	48 89 c2             	mov    %rax,%rdx
  802899:	be 01 00 00 00       	mov    $0x1,%esi
  80289e:	bf 05 00 00 00       	mov    $0x5,%edi
  8028a3:	48 b8 30 26 80 00 00 	movabs $0x802630,%rax
  8028aa:	00 00 00 
  8028ad:	ff d0                	callq  *%rax
}
  8028af:	c9                   	leaveq 
  8028b0:	c3                   	retq   

00000000008028b1 <sys_page_unmap>:

int
sys_page_unmap(envid_t envid, void *va)
{
  8028b1:	55                   	push   %rbp
  8028b2:	48 89 e5             	mov    %rsp,%rbp
  8028b5:	48 83 ec 20          	sub    $0x20,%rsp
  8028b9:	89 7d fc             	mov    %edi,-0x4(%rbp)
  8028bc:	48 89 75 f0          	mov    %rsi,-0x10(%rbp)
	return syscall(SYS_page_unmap, 1, envid, (uint64_t) va, 0, 0, 0);
  8028c0:	48 8b 55 f0          	mov    -0x10(%rbp),%rdx
  8028c4:	8b 45 fc             	mov    -0x4(%rbp),%eax
  8028c7:	48 98                	cltq   
  8028c9:	48 c7 04 24 00 00 00 	movq   $0x0,(%rsp)
  8028d0:	00 
  8028d1:	41 b9 00 00 00 00    	mov    $0x0,%r9d
  8028d7:	41 b8 00 00 00 00    	mov    $0x0,%r8d
  8028dd:	48 89 d1             	mov    %rdx,%rcx
  8028e0:	48 89 c2             	mov    %rax,%rdx
  8028e3:	be 01 00 00 00       	mov    $0x1,%esi
  8028e8:	bf 06 00 00 00       	mov    $0x6,%edi
  8028ed:	48 b8 30 26 80 00 00 	movabs $0x802630,%rax
  8028f4:	00 00 00 
  8028f7:	ff d0                	callq  *%rax
}
  8028f9:	c9                   	leaveq 
  8028fa:	c3                   	retq   

00000000008028fb <sys_env_set_status>:

// sys_exofork is inlined in lib.h

int
sys_env_set_status(envid_t envid, int status)
{
  8028fb:	55                   	push   %rbp
  8028fc:	48 89 e5             	mov    %rsp,%rbp
  8028ff:	48 83 ec 10          	sub    $0x10,%rsp
  802903:	89 7d fc             	mov    %edi,-0x4(%rbp)
  802906:	89 75 f8             	mov    %esi,-0x8(%rbp)
	return syscall(SYS_env_set_status, 1, envid, status, 0, 0, 0);
  802909:	8b 45 f8             	mov    -0x8(%rbp),%eax
  80290c:	48 63 d0             	movslq %eax,%rdx
  80290f:	8b 45 fc             	mov    -0x4(%rbp),%eax
  802912:	48 98                	cltq   
  802914:	48 c7 04 24 00 00 00 	movq   $0x0,(%rsp)
  80291b:	00 
  80291c:	41 b9 00 00 00 00    	mov    $0x0,%r9d
  802922:	41 b8 00 00 00 00    	mov    $0x0,%r8d
  802928:	48 89 d1             	mov    %rdx,%rcx
  80292b:	48 89 c2             	mov    %rax,%rdx
  80292e:	be 01 00 00 00       	mov    $0x1,%esi
  802933:	bf 08 00 00 00       	mov    $0x8,%edi
  802938:	48 b8 30 26 80 00 00 	movabs $0x802630,%rax
  80293f:	00 00 00 
  802942:	ff d0                	callq  *%rax
}
  802944:	c9                   	leaveq 
  802945:	c3                   	retq   

0000000000802946 <sys_env_set_trapframe>:


int
sys_env_set_trapframe(envid_t envid, struct Trapframe *tf)
{
  802946:	55                   	push   %rbp
  802947:	48 89 e5             	mov    %rsp,%rbp
  80294a:	48 83 ec 20          	sub    $0x20,%rsp
  80294e:	89 7d fc             	mov    %edi,-0x4(%rbp)
  802951:	48 89 75 f0          	mov    %rsi,-0x10(%rbp)
	return syscall(SYS_env_set_trapframe, 1, envid, (uint64_t) tf, 0, 0, 0);
  802955:	48 8b 55 f0          	mov    -0x10(%rbp),%rdx
  802959:	8b 45 fc             	mov    -0x4(%rbp),%eax
  80295c:	48 98                	cltq   
  80295e:	48 c7 04 24 00 00 00 	movq   $0x0,(%rsp)
  802965:	00 
  802966:	41 b9 00 00 00 00    	mov    $0x0,%r9d
  80296c:	41 b8 00 00 00 00    	mov    $0x0,%r8d
  802972:	48 89 d1             	mov    %rdx,%rcx
  802975:	48 89 c2             	mov    %rax,%rdx
  802978:	be 01 00 00 00       	mov    $0x1,%esi
  80297d:	bf 09 00 00 00       	mov    $0x9,%edi
  802982:	48 b8 30 26 80 00 00 	movabs $0x802630,%rax
  802989:	00 00 00 
  80298c:	ff d0                	callq  *%rax
}
  80298e:	c9                   	leaveq 
  80298f:	c3                   	retq   

0000000000802990 <sys_env_set_pgfault_upcall>:


int
sys_env_set_pgfault_upcall(envid_t envid, void *upcall)
{
  802990:	55                   	push   %rbp
  802991:	48 89 e5             	mov    %rsp,%rbp
  802994:	48 83 ec 20          	sub    $0x20,%rsp
  802998:	89 7d fc             	mov    %edi,-0x4(%rbp)
  80299b:	48 89 75 f0          	mov    %rsi,-0x10(%rbp)
	return syscall(SYS_env_set_pgfault_upcall, 1, envid, (uint64_t) upcall, 0, 0, 0);
  80299f:	48 8b 55 f0          	mov    -0x10(%rbp),%rdx
  8029a3:	8b 45 fc             	mov    -0x4(%rbp),%eax
  8029a6:	48 98                	cltq   
  8029a8:	48 c7 04 24 00 00 00 	movq   $0x0,(%rsp)
  8029af:	00 
  8029b0:	41 b9 00 00 00 00    	mov    $0x0,%r9d
  8029b6:	41 b8 00 00 00 00    	mov    $0x0,%r8d
  8029bc:	48 89 d1             	mov    %rdx,%rcx
  8029bf:	48 89 c2             	mov    %rax,%rdx
  8029c2:	be 01 00 00 00       	mov    $0x1,%esi
  8029c7:	bf 0a 00 00 00       	mov    $0xa,%edi
  8029cc:	48 b8 30 26 80 00 00 	movabs $0x802630,%rax
  8029d3:	00 00 00 
  8029d6:	ff d0                	callq  *%rax
}
  8029d8:	c9                   	leaveq 
  8029d9:	c3                   	retq   

00000000008029da <sys_ipc_try_send>:

int
sys_ipc_try_send(envid_t envid, uint64_t value, void *srcva, int perm)
{
  8029da:	55                   	push   %rbp
  8029db:	48 89 e5             	mov    %rsp,%rbp
  8029de:	48 83 ec 20          	sub    $0x20,%rsp
  8029e2:	89 7d fc             	mov    %edi,-0x4(%rbp)
  8029e5:	48 89 75 f0          	mov    %rsi,-0x10(%rbp)
  8029e9:	48 89 55 e8          	mov    %rdx,-0x18(%rbp)
  8029ed:	89 4d f8             	mov    %ecx,-0x8(%rbp)
	return syscall(SYS_ipc_try_send, 0, envid, value, (uint64_t) srcva, perm, 0);
  8029f0:	8b 45 f8             	mov    -0x8(%rbp),%eax
  8029f3:	48 63 f0             	movslq %eax,%rsi
  8029f6:	48 8b 4d e8          	mov    -0x18(%rbp),%rcx
  8029fa:	8b 45 fc             	mov    -0x4(%rbp),%eax
  8029fd:	48 98                	cltq   
  8029ff:	48 8b 55 f0          	mov    -0x10(%rbp),%rdx
  802a03:	48 c7 04 24 00 00 00 	movq   $0x0,(%rsp)
  802a0a:	00 
  802a0b:	49 89 f1             	mov    %rsi,%r9
  802a0e:	49 89 c8             	mov    %rcx,%r8
  802a11:	48 89 d1             	mov    %rdx,%rcx
  802a14:	48 89 c2             	mov    %rax,%rdx
  802a17:	be 00 00 00 00       	mov    $0x0,%esi
  802a1c:	bf 0c 00 00 00       	mov    $0xc,%edi
  802a21:	48 b8 30 26 80 00 00 	movabs $0x802630,%rax
  802a28:	00 00 00 
  802a2b:	ff d0                	callq  *%rax
}
  802a2d:	c9                   	leaveq 
  802a2e:	c3                   	retq   

0000000000802a2f <sys_ipc_recv>:

int
sys_ipc_recv(void *dstva)
{
  802a2f:	55                   	push   %rbp
  802a30:	48 89 e5             	mov    %rsp,%rbp
  802a33:	48 83 ec 10          	sub    $0x10,%rsp
  802a37:	48 89 7d f8          	mov    %rdi,-0x8(%rbp)
	return syscall(SYS_ipc_recv, 1, (uint64_t)dstva, 0, 0, 0, 0);
  802a3b:	48 8b 45 f8          	mov    -0x8(%rbp),%rax
  802a3f:	48 c7 04 24 00 00 00 	movq   $0x0,(%rsp)
  802a46:	00 
  802a47:	41 b9 00 00 00 00    	mov    $0x0,%r9d
  802a4d:	41 b8 00 00 00 00    	mov    $0x0,%r8d
  802a53:	b9 00 00 00 00       	mov    $0x0,%ecx
  802a58:	48 89 c2             	mov    %rax,%rdx
  802a5b:	be 01 00 00 00       	mov    $0x1,%esi
  802a60:	bf 0d 00 00 00       	mov    $0xd,%edi
  802a65:	48 b8 30 26 80 00 00 	movabs $0x802630,%rax
  802a6c:	00 00 00 
  802a6f:	ff d0                	callq  *%rax
}
  802a71:	c9                   	leaveq 
  802a72:	c3                   	retq   

0000000000802a73 <sys_time_msec>:


unsigned int
sys_time_msec(void)
{
  802a73:	55                   	push   %rbp
  802a74:	48 89 e5             	mov    %rsp,%rbp
  802a77:	48 83 ec 10          	sub    $0x10,%rsp
	return (unsigned int) syscall(SYS_time_msec, 0, 0, 0, 0, 0, 0);
  802a7b:	48 c7 04 24 00 00 00 	movq   $0x0,(%rsp)
  802a82:	00 
  802a83:	41 b9 00 00 00 00    	mov    $0x0,%r9d
  802a89:	41 b8 00 00 00 00    	mov    $0x0,%r8d
  802a8f:	b9 00 00 00 00       	mov    $0x0,%ecx
  802a94:	ba 00 00 00 00       	mov    $0x0,%edx
  802a99:	be 00 00 00 00       	mov    $0x0,%esi
  802a9e:	bf 0e 00 00 00       	mov    $0xe,%edi
  802aa3:	48 b8 30 26 80 00 00 	movabs $0x802630,%rax
  802aaa:	00 00 00 
  802aad:	ff d0                	callq  *%rax
}
  802aaf:	c9                   	leaveq 
  802ab0:	c3                   	retq   

0000000000802ab1 <sys_net_transmit>:


int
sys_net_transmit(const char *data, unsigned int len)
{
  802ab1:	55                   	push   %rbp
  802ab2:	48 89 e5             	mov    %rsp,%rbp
  802ab5:	48 83 ec 20          	sub    $0x20,%rsp
  802ab9:	48 89 7d f8          	mov    %rdi,-0x8(%rbp)
  802abd:	89 75 f4             	mov    %esi,-0xc(%rbp)
	return syscall(SYS_net_transmit, 0, (uint64_t)data, len, 0, 0, 0);
  802ac0:	8b 55 f4             	mov    -0xc(%rbp),%edx
  802ac3:	48 8b 45 f8          	mov    -0x8(%rbp),%rax
  802ac7:	48 c7 04 24 00 00 00 	movq   $0x0,(%rsp)
  802ace:	00 
  802acf:	41 b9 00 00 00 00    	mov    $0x0,%r9d
  802ad5:	41 b8 00 00 00 00    	mov    $0x0,%r8d
  802adb:	48 89 d1             	mov    %rdx,%rcx
  802ade:	48 89 c2             	mov    %rax,%rdx
  802ae1:	be 00 00 00 00       	mov    $0x0,%esi
  802ae6:	bf 0f 00 00 00       	mov    $0xf,%edi
  802aeb:	48 b8 30 26 80 00 00 	movabs $0x802630,%rax
  802af2:	00 00 00 
  802af5:	ff d0                	callq  *%rax
}
  802af7:	c9                   	leaveq 
  802af8:	c3                   	retq   

0000000000802af9 <sys_net_receive>:

int
sys_net_receive(char *buf, unsigned int len)
{
  802af9:	55                   	push   %rbp
  802afa:	48 89 e5             	mov    %rsp,%rbp
  802afd:	48 83 ec 20          	sub    $0x20,%rsp
  802b01:	48 89 7d f8          	mov    %rdi,-0x8(%rbp)
  802b05:	89 75 f4             	mov    %esi,-0xc(%rbp)
	return syscall(SYS_net_receive, 0, (uint64_t)buf, len, 0, 0, 0);
  802b08:	8b 55 f4             	mov    -0xc(%rbp),%edx
  802b0b:	48 8b 45 f8          	mov    -0x8(%rbp),%rax
  802b0f:	48 c7 04 24 00 00 00 	movq   $0x0,(%rsp)
  802b16:	00 
  802b17:	41 b9 00 00 00 00    	mov    $0x0,%r9d
  802b1d:	41 b8 00 00 00 00    	mov    $0x0,%r8d
  802b23:	48 89 d1             	mov    %rdx,%rcx
  802b26:	48 89 c2             	mov    %rax,%rdx
  802b29:	be 00 00 00 00       	mov    $0x0,%esi
  802b2e:	bf 10 00 00 00       	mov    $0x10,%edi
  802b33:	48 b8 30 26 80 00 00 	movabs $0x802630,%rax
  802b3a:	00 00 00 
  802b3d:	ff d0                	callq  *%rax
}
  802b3f:	c9                   	leaveq 
  802b40:	c3                   	retq   

0000000000802b41 <sys_ept_map>:



int
sys_ept_map(envid_t srcenvid, void *srcva, envid_t guest, void* guest_pa, int perm) 
{
  802b41:	55                   	push   %rbp
  802b42:	48 89 e5             	mov    %rsp,%rbp
  802b45:	48 83 ec 30          	sub    $0x30,%rsp
  802b49:	89 7d fc             	mov    %edi,-0x4(%rbp)
  802b4c:	48 89 75 f0          	mov    %rsi,-0x10(%rbp)
  802b50:	89 55 f8             	mov    %edx,-0x8(%rbp)
  802b53:	48 89 4d e8          	mov    %rcx,-0x18(%rbp)
  802b57:	44 89 45 e4          	mov    %r8d,-0x1c(%rbp)
	return syscall(SYS_ept_map, 0, srcenvid, 
  802b5b:	8b 45 e4             	mov    -0x1c(%rbp),%eax
  802b5e:	48 63 c8             	movslq %eax,%rcx
  802b61:	48 8b 7d e8          	mov    -0x18(%rbp),%rdi
  802b65:	8b 45 f8             	mov    -0x8(%rbp),%eax
  802b68:	48 63 f0             	movslq %eax,%rsi
  802b6b:	48 8b 55 f0          	mov    -0x10(%rbp),%rdx
  802b6f:	8b 45 fc             	mov    -0x4(%rbp),%eax
  802b72:	48 98                	cltq   
  802b74:	48 89 0c 24          	mov    %rcx,(%rsp)
  802b78:	49 89 f9             	mov    %rdi,%r9
  802b7b:	49 89 f0             	mov    %rsi,%r8
  802b7e:	48 89 d1             	mov    %rdx,%rcx
  802b81:	48 89 c2             	mov    %rax,%rdx
  802b84:	be 00 00 00 00       	mov    $0x0,%esi
  802b89:	bf 11 00 00 00       	mov    $0x11,%edi
  802b8e:	48 b8 30 26 80 00 00 	movabs $0x802630,%rax
  802b95:	00 00 00 
  802b98:	ff d0                	callq  *%rax
		       (uint64_t)srcva, guest, (uint64_t)guest_pa, perm);
}
  802b9a:	c9                   	leaveq 
  802b9b:	c3                   	retq   

0000000000802b9c <sys_env_mkguest>:

envid_t
sys_env_mkguest(uint64_t gphysz, uint64_t gRIP) {
  802b9c:	55                   	push   %rbp
  802b9d:	48 89 e5             	mov    %rsp,%rbp
  802ba0:	48 83 ec 20          	sub    $0x20,%rsp
  802ba4:	48 89 7d f8          	mov    %rdi,-0x8(%rbp)
  802ba8:	48 89 75 f0          	mov    %rsi,-0x10(%rbp)
	return (envid_t) syscall(SYS_env_mkguest, 0, gphysz, gRIP, 0, 0, 0);
  802bac:	48 8b 55 f0          	mov    -0x10(%rbp),%rdx
  802bb0:	48 8b 45 f8          	mov    -0x8(%rbp),%rax
  802bb4:	48 c7 04 24 00 00 00 	movq   $0x0,(%rsp)
  802bbb:	00 
  802bbc:	41 b9 00 00 00 00    	mov    $0x0,%r9d
  802bc2:	41 b8 00 00 00 00    	mov    $0x0,%r8d
  802bc8:	48 89 d1             	mov    %rdx,%rcx
  802bcb:	48 89 c2             	mov    %rax,%rdx
  802bce:	be 00 00 00 00       	mov    $0x0,%esi
  802bd3:	bf 12 00 00 00       	mov    $0x12,%edi
  802bd8:	48 b8 30 26 80 00 00 	movabs $0x802630,%rax
  802bdf:	00 00 00 
  802be2:	ff d0                	callq  *%rax
}
  802be4:	c9                   	leaveq 
  802be5:	c3                   	retq   

0000000000802be6 <pgfault>:
// Custom page fault handler - if faulting page is copy-on-write,
// map in our own private writable copy.
//
static void
pgfault(struct UTrapframe *utf)
{
  802be6:	55                   	push   %rbp
  802be7:	48 89 e5             	mov    %rsp,%rbp
  802bea:	48 83 ec 30          	sub    $0x30,%rsp
  802bee:	48 89 7d d8          	mov    %rdi,-0x28(%rbp)
	void *addr = (void *) utf->utf_fault_va;
  802bf2:	48 8b 45 d8          	mov    -0x28(%rbp),%rax
  802bf6:	48 8b 00             	mov    (%rax),%rax
  802bf9:	48 89 45 e0          	mov    %rax,-0x20(%rbp)
	uint32_t err = utf->utf_err;
  802bfd:	48 8b 45 d8          	mov    -0x28(%rbp),%rax
  802c01:	48 8b 40 08          	mov    0x8(%rax),%rax
  802c05:	89 45 fc             	mov    %eax,-0x4(%rbp)


	if (debug)
		cprintf("fault %08x %08x %d from %08x\n", addr, &uvpt[PGNUM(addr)], err & 7, (&addr)[4]);

	if (!(err & FEC_WR))
  802c08:	8b 45 fc             	mov    -0x4(%rbp),%eax
  802c0b:	83 e0 02             	and    $0x2,%eax
  802c0e:	85 c0                	test   %eax,%eax
  802c10:	75 40                	jne    802c52 <pgfault+0x6c>
		panic("read fault at %x, rip %x", addr, utf->utf_rip);
  802c12:	48 8b 45 d8          	mov    -0x28(%rbp),%rax
  802c16:	48 8b 90 88 00 00 00 	mov    0x88(%rax),%rdx
  802c1d:	48 8b 45 e0          	mov    -0x20(%rbp),%rax
  802c21:	49 89 d0             	mov    %rdx,%r8
  802c24:	48 89 c1             	mov    %rax,%rcx
  802c27:	48 ba f8 12 82 00 00 	movabs $0x8212f8,%rdx
  802c2e:	00 00 00 
  802c31:	be 1f 00 00 00       	mov    $0x1f,%esi
  802c36:	48 bf 11 13 82 00 00 	movabs $0x821311,%rdi
  802c3d:	00 00 00 
  802c40:	b8 00 00 00 00       	mov    $0x0,%eax
  802c45:	49 b9 e9 10 80 00 00 	movabs $0x8010e9,%r9
  802c4c:	00 00 00 
  802c4f:	41 ff d1             	callq  *%r9
	if ((uvpt[PGNUM(addr)] & (PTE_P|PTE_U|PTE_W|PTE_COW)) != (PTE_P|PTE_U|PTE_COW))
  802c52:	48 8b 45 e0          	mov    -0x20(%rbp),%rax
  802c56:	48 c1 e8 0c          	shr    $0xc,%rax
  802c5a:	48 89 c2             	mov    %rax,%rdx
  802c5d:	48 b8 00 00 00 00 00 	movabs $0x10000000000,%rax
  802c64:	01 00 00 
  802c67:	48 8b 04 d0          	mov    (%rax,%rdx,8),%rax
  802c6b:	25 07 08 00 00       	and    $0x807,%eax
  802c70:	48 3d 05 08 00 00    	cmp    $0x805,%rax
  802c76:	74 4e                	je     802cc6 <pgfault+0xe0>
		panic("fault at %x with pte %x, not copy-on-write",
  802c78:	48 8b 45 e0          	mov    -0x20(%rbp),%rax
  802c7c:	48 c1 e8 0c          	shr    $0xc,%rax
  802c80:	48 89 c2             	mov    %rax,%rdx
  802c83:	48 b8 00 00 00 00 00 	movabs $0x10000000000,%rax
  802c8a:	01 00 00 
  802c8d:	48 8b 14 d0          	mov    (%rax,%rdx,8),%rdx
  802c91:	48 8b 45 e0          	mov    -0x20(%rbp),%rax
  802c95:	49 89 d0             	mov    %rdx,%r8
  802c98:	48 89 c1             	mov    %rax,%rcx
  802c9b:	48 ba 20 13 82 00 00 	movabs $0x821320,%rdx
  802ca2:	00 00 00 
  802ca5:	be 22 00 00 00       	mov    $0x22,%esi
  802caa:	48 bf 11 13 82 00 00 	movabs $0x821311,%rdi
  802cb1:	00 00 00 
  802cb4:	b8 00 00 00 00       	mov    $0x0,%eax
  802cb9:	49 b9 e9 10 80 00 00 	movabs $0x8010e9,%r9
  802cc0:	00 00 00 
  802cc3:	41 ff d1             	callq  *%r9
		      addr, uvpt[PGNUM(addr)]);



	// copy page
	if ((r = sys_page_alloc(0, (void*) PFTEMP, PTE_P|PTE_U|PTE_W)) < 0)
  802cc6:	ba 07 00 00 00       	mov    $0x7,%edx
  802ccb:	be 00 f0 5f 00       	mov    $0x5ff000,%esi
  802cd0:	bf 00 00 00 00       	mov    $0x0,%edi
  802cd5:	48 b8 06 28 80 00 00 	movabs $0x802806,%rax
  802cdc:	00 00 00 
  802cdf:	ff d0                	callq  *%rax
  802ce1:	89 45 f8             	mov    %eax,-0x8(%rbp)
  802ce4:	83 7d f8 00          	cmpl   $0x0,-0x8(%rbp)
  802ce8:	79 30                	jns    802d1a <pgfault+0x134>
		panic("sys_page_alloc: %e", r);
  802cea:	8b 45 f8             	mov    -0x8(%rbp),%eax
  802ced:	89 c1                	mov    %eax,%ecx
  802cef:	48 ba 4b 13 82 00 00 	movabs $0x82134b,%rdx
  802cf6:	00 00 00 
  802cf9:	be 28 00 00 00       	mov    $0x28,%esi
  802cfe:	48 bf 11 13 82 00 00 	movabs $0x821311,%rdi
  802d05:	00 00 00 
  802d08:	b8 00 00 00 00       	mov    $0x0,%eax
  802d0d:	49 b8 e9 10 80 00 00 	movabs $0x8010e9,%r8
  802d14:	00 00 00 
  802d17:	41 ff d0             	callq  *%r8
	memmove((void*) PFTEMP, ROUNDDOWN(addr, PGSIZE), PGSIZE);
  802d1a:	48 8b 45 e0          	mov    -0x20(%rbp),%rax
  802d1e:	48 89 45 f0          	mov    %rax,-0x10(%rbp)
  802d22:	48 8b 45 f0          	mov    -0x10(%rbp),%rax
  802d26:	48 25 00 f0 ff ff    	and    $0xfffffffffffff000,%rax
  802d2c:	ba 00 10 00 00       	mov    $0x1000,%edx
  802d31:	48 89 c6             	mov    %rax,%rsi
  802d34:	bf 00 f0 5f 00       	mov    $0x5ff000,%edi
  802d39:	48 b8 fb 21 80 00 00 	movabs $0x8021fb,%rax
  802d40:	00 00 00 
  802d43:	ff d0                	callq  *%rax

	// remap over faulting page
	if ((r = sys_page_map(0, (void*) PFTEMP, 0, ROUNDDOWN(addr, PGSIZE), PTE_P|PTE_U|PTE_W)) < 0)
  802d45:	48 8b 45 e0          	mov    -0x20(%rbp),%rax
  802d49:	48 89 45 e8          	mov    %rax,-0x18(%rbp)
  802d4d:	48 8b 45 e8          	mov    -0x18(%rbp),%rax
  802d51:	48 25 00 f0 ff ff    	and    $0xfffffffffffff000,%rax
  802d57:	41 b8 07 00 00 00    	mov    $0x7,%r8d
  802d5d:	48 89 c1             	mov    %rax,%rcx
  802d60:	ba 00 00 00 00       	mov    $0x0,%edx
  802d65:	be 00 f0 5f 00       	mov    $0x5ff000,%esi
  802d6a:	bf 00 00 00 00       	mov    $0x0,%edi
  802d6f:	48 b8 56 28 80 00 00 	movabs $0x802856,%rax
  802d76:	00 00 00 
  802d79:	ff d0                	callq  *%rax
  802d7b:	89 45 f8             	mov    %eax,-0x8(%rbp)
  802d7e:	83 7d f8 00          	cmpl   $0x0,-0x8(%rbp)
  802d82:	79 30                	jns    802db4 <pgfault+0x1ce>
		panic("sys_page_map: %e", r);
  802d84:	8b 45 f8             	mov    -0x8(%rbp),%eax
  802d87:	89 c1                	mov    %eax,%ecx
  802d89:	48 ba 5e 13 82 00 00 	movabs $0x82135e,%rdx
  802d90:	00 00 00 
  802d93:	be 2d 00 00 00       	mov    $0x2d,%esi
  802d98:	48 bf 11 13 82 00 00 	movabs $0x821311,%rdi
  802d9f:	00 00 00 
  802da2:	b8 00 00 00 00       	mov    $0x0,%eax
  802da7:	49 b8 e9 10 80 00 00 	movabs $0x8010e9,%r8
  802dae:	00 00 00 
  802db1:	41 ff d0             	callq  *%r8

	// unmap our work space
	if ((r = sys_page_unmap(0, (void*) PFTEMP)) < 0)
  802db4:	be 00 f0 5f 00       	mov    $0x5ff000,%esi
  802db9:	bf 00 00 00 00       	mov    $0x0,%edi
  802dbe:	48 b8 b1 28 80 00 00 	movabs $0x8028b1,%rax
  802dc5:	00 00 00 
  802dc8:	ff d0                	callq  *%rax
  802dca:	89 45 f8             	mov    %eax,-0x8(%rbp)
  802dcd:	83 7d f8 00          	cmpl   $0x0,-0x8(%rbp)
  802dd1:	79 30                	jns    802e03 <pgfault+0x21d>
		panic("sys_page_unmap: %e", r);
  802dd3:	8b 45 f8             	mov    -0x8(%rbp),%eax
  802dd6:	89 c1                	mov    %eax,%ecx
  802dd8:	48 ba 6f 13 82 00 00 	movabs $0x82136f,%rdx
  802ddf:	00 00 00 
  802de2:	be 31 00 00 00       	mov    $0x31,%esi
  802de7:	48 bf 11 13 82 00 00 	movabs $0x821311,%rdi
  802dee:	00 00 00 
  802df1:	b8 00 00 00 00       	mov    $0x0,%eax
  802df6:	49 b8 e9 10 80 00 00 	movabs $0x8010e9,%r8
  802dfd:	00 00 00 
  802e00:	41 ff d0             	callq  *%r8

}
  802e03:	c9                   	leaveq 
  802e04:	c3                   	retq   

0000000000802e05 <duppage>:
// Returns: 0 on success, < 0 on error.
// It is also OK to panic on error.
//
static int
duppage(envid_t envid, unsigned pn)
{
  802e05:	55                   	push   %rbp
  802e06:	48 89 e5             	mov    %rsp,%rbp
  802e09:	48 83 ec 30          	sub    $0x30,%rsp
  802e0d:	89 7d dc             	mov    %edi,-0x24(%rbp)
  802e10:	89 75 d8             	mov    %esi,-0x28(%rbp)


	void *addr;
	pte_t pte;

	addr = (void*) (uint64_t)(pn << PGSHIFT);
  802e13:	8b 45 d8             	mov    -0x28(%rbp),%eax
  802e16:	c1 e0 0c             	shl    $0xc,%eax
  802e19:	89 c0                	mov    %eax,%eax
  802e1b:	48 89 45 f8          	mov    %rax,-0x8(%rbp)
	pte = uvpt[pn];
  802e1f:	48 b8 00 00 00 00 00 	movabs $0x10000000000,%rax
  802e26:	01 00 00 
  802e29:	8b 55 d8             	mov    -0x28(%rbp),%edx
  802e2c:	48 8b 04 d0          	mov    (%rax,%rdx,8),%rax
  802e30:	48 89 45 f0          	mov    %rax,-0x10(%rbp)
	

	// if the page is just read-only or is library-shared, map it directly.
	if (!(pte & (PTE_W|PTE_COW)) || (pte & PTE_SHARE)) {
  802e34:	48 8b 45 f0          	mov    -0x10(%rbp),%rax
  802e38:	25 02 08 00 00       	and    $0x802,%eax
  802e3d:	48 85 c0             	test   %rax,%rax
  802e40:	74 0e                	je     802e50 <duppage+0x4b>
  802e42:	48 8b 45 f0          	mov    -0x10(%rbp),%rax
  802e46:	25 00 04 00 00       	and    $0x400,%eax
  802e4b:	48 85 c0             	test   %rax,%rax
  802e4e:	74 70                	je     802ec0 <duppage+0xbb>
		if ((r = sys_page_map(0, addr, envid, addr, pte & PTE_SYSCALL)) < 0)
  802e50:	48 8b 45 f0          	mov    -0x10(%rbp),%rax
  802e54:	25 07 0e 00 00       	and    $0xe07,%eax
  802e59:	89 c6                	mov    %eax,%esi
  802e5b:	48 8b 4d f8          	mov    -0x8(%rbp),%rcx
  802e5f:	8b 55 dc             	mov    -0x24(%rbp),%edx
  802e62:	48 8b 45 f8          	mov    -0x8(%rbp),%rax
  802e66:	41 89 f0             	mov    %esi,%r8d
  802e69:	48 89 c6             	mov    %rax,%rsi
  802e6c:	bf 00 00 00 00       	mov    $0x0,%edi
  802e71:	48 b8 56 28 80 00 00 	movabs $0x802856,%rax
  802e78:	00 00 00 
  802e7b:	ff d0                	callq  *%rax
  802e7d:	89 45 ec             	mov    %eax,-0x14(%rbp)
  802e80:	83 7d ec 00          	cmpl   $0x0,-0x14(%rbp)
  802e84:	79 30                	jns    802eb6 <duppage+0xb1>
			panic("sys_page_map: %e", r);
  802e86:	8b 45 ec             	mov    -0x14(%rbp),%eax
  802e89:	89 c1                	mov    %eax,%ecx
  802e8b:	48 ba 5e 13 82 00 00 	movabs $0x82135e,%rdx
  802e92:	00 00 00 
  802e95:	be 50 00 00 00       	mov    $0x50,%esi
  802e9a:	48 bf 11 13 82 00 00 	movabs $0x821311,%rdi
  802ea1:	00 00 00 
  802ea4:	b8 00 00 00 00       	mov    $0x0,%eax
  802ea9:	49 b8 e9 10 80 00 00 	movabs $0x8010e9,%r8
  802eb0:	00 00 00 
  802eb3:	41 ff d0             	callq  *%r8
		return 0;
  802eb6:	b8 00 00 00 00       	mov    $0x0,%eax
  802ebb:	e9 c4 00 00 00       	jmpq   802f84 <duppage+0x17f>
	// Even if we think the page is already copy-on-write in our
	// address space, we need to mark it copy-on-write again after
	// the first sys_page_map, just in case a page fault has caused
	// us to copy the page in the interim.

	if ((r = sys_page_map(0, addr, envid, addr, PTE_P|PTE_U|PTE_COW)) < 0)
  802ec0:	48 8b 4d f8          	mov    -0x8(%rbp),%rcx
  802ec4:	8b 55 dc             	mov    -0x24(%rbp),%edx
  802ec7:	48 8b 45 f8          	mov    -0x8(%rbp),%rax
  802ecb:	41 b8 05 08 00 00    	mov    $0x805,%r8d
  802ed1:	48 89 c6             	mov    %rax,%rsi
  802ed4:	bf 00 00 00 00       	mov    $0x0,%edi
  802ed9:	48 b8 56 28 80 00 00 	movabs $0x802856,%rax
  802ee0:	00 00 00 
  802ee3:	ff d0                	callq  *%rax
  802ee5:	89 45 ec             	mov    %eax,-0x14(%rbp)
  802ee8:	83 7d ec 00          	cmpl   $0x0,-0x14(%rbp)
  802eec:	79 30                	jns    802f1e <duppage+0x119>
		panic("sys_page_map: %e", r);
  802eee:	8b 45 ec             	mov    -0x14(%rbp),%eax
  802ef1:	89 c1                	mov    %eax,%ecx
  802ef3:	48 ba 5e 13 82 00 00 	movabs $0x82135e,%rdx
  802efa:	00 00 00 
  802efd:	be 64 00 00 00       	mov    $0x64,%esi
  802f02:	48 bf 11 13 82 00 00 	movabs $0x821311,%rdi
  802f09:	00 00 00 
  802f0c:	b8 00 00 00 00       	mov    $0x0,%eax
  802f11:	49 b8 e9 10 80 00 00 	movabs $0x8010e9,%r8
  802f18:	00 00 00 
  802f1b:	41 ff d0             	callq  *%r8
	if ((r = sys_page_map(0, addr, 0, addr, PTE_P|PTE_U|PTE_COW)) < 0)
  802f1e:	48 8b 55 f8          	mov    -0x8(%rbp),%rdx
  802f22:	48 8b 45 f8          	mov    -0x8(%rbp),%rax
  802f26:	41 b8 05 08 00 00    	mov    $0x805,%r8d
  802f2c:	48 89 d1             	mov    %rdx,%rcx
  802f2f:	ba 00 00 00 00       	mov    $0x0,%edx
  802f34:	48 89 c6             	mov    %rax,%rsi
  802f37:	bf 00 00 00 00       	mov    $0x0,%edi
  802f3c:	48 b8 56 28 80 00 00 	movabs $0x802856,%rax
  802f43:	00 00 00 
  802f46:	ff d0                	callq  *%rax
  802f48:	89 45 ec             	mov    %eax,-0x14(%rbp)
  802f4b:	83 7d ec 00          	cmpl   $0x0,-0x14(%rbp)
  802f4f:	79 30                	jns    802f81 <duppage+0x17c>
		panic("sys_page_map: %e", r);
  802f51:	8b 45 ec             	mov    -0x14(%rbp),%eax
  802f54:	89 c1                	mov    %eax,%ecx
  802f56:	48 ba 5e 13 82 00 00 	movabs $0x82135e,%rdx
  802f5d:	00 00 00 
  802f60:	be 66 00 00 00       	mov    $0x66,%esi
  802f65:	48 bf 11 13 82 00 00 	movabs $0x821311,%rdi
  802f6c:	00 00 00 
  802f6f:	b8 00 00 00 00       	mov    $0x0,%eax
  802f74:	49 b8 e9 10 80 00 00 	movabs $0x8010e9,%r8
  802f7b:	00 00 00 
  802f7e:	41 ff d0             	callq  *%r8
	return r;
  802f81:	8b 45 ec             	mov    -0x14(%rbp),%eax

}
  802f84:	c9                   	leaveq 
  802f85:	c3                   	retq   

0000000000802f86 <fork>:
//   Neither user exception stack should ever be marked copy-on-write,
//   so you must allocate a new page for the child's user exception stack.
//
envid_t
fork(void)
{
  802f86:	55                   	push   %rbp
  802f87:	48 89 e5             	mov    %rsp,%rbp
  802f8a:	48 83 ec 20          	sub    $0x20,%rsp

	envid_t envid;
	int pn, end_pn, r;

	set_pgfault_handler(pgfault);
  802f8e:	48 bf e6 2b 80 00 00 	movabs $0x802be6,%rdi
  802f95:	00 00 00 
  802f98:	48 b8 77 5b 80 00 00 	movabs $0x805b77,%rax
  802f9f:	00 00 00 
  802fa2:	ff d0                	callq  *%rax
// This must be inlined.  Exercise for reader: why?
static __inline envid_t __attribute__((always_inline))
sys_exofork(void)
{
	envid_t ret;
	__asm __volatile("int %2"
  802fa4:	b8 07 00 00 00       	mov    $0x7,%eax
  802fa9:	cd 30                	int    $0x30
  802fab:	89 45 ec             	mov    %eax,-0x14(%rbp)
		: "=a" (ret)
		: "a" (SYS_exofork),
		  "i" (T_SYSCALL)
	);
	return ret;
  802fae:	8b 45 ec             	mov    -0x14(%rbp),%eax

	// Create a child.
	envid = sys_exofork();
  802fb1:	89 45 f8             	mov    %eax,-0x8(%rbp)
	if (envid < 0)
  802fb4:	83 7d f8 00          	cmpl   $0x0,-0x8(%rbp)
  802fb8:	79 08                	jns    802fc2 <fork+0x3c>
		return envid;
  802fba:	8b 45 f8             	mov    -0x8(%rbp),%eax
  802fbd:	e9 09 02 00 00       	jmpq   8031cb <fork+0x245>
	if (envid == 0) {
  802fc2:	83 7d f8 00          	cmpl   $0x0,-0x8(%rbp)
  802fc6:	75 3e                	jne    803006 <fork+0x80>
		thisenv = &envs[ENVX(sys_getenvid())];
  802fc8:	48 b8 8a 27 80 00 00 	movabs $0x80278a,%rax
  802fcf:	00 00 00 
  802fd2:	ff d0                	callq  *%rax
  802fd4:	25 ff 03 00 00       	and    $0x3ff,%eax
  802fd9:	48 98                	cltq   
  802fdb:	48 69 d0 68 01 00 00 	imul   $0x168,%rax,%rdx
  802fe2:	48 b8 00 00 80 00 80 	movabs $0x8000800000,%rax
  802fe9:	00 00 00 
  802fec:	48 01 c2             	add    %rax,%rdx
  802fef:	48 b8 70 75 b5 00 00 	movabs $0xb57570,%rax
  802ff6:	00 00 00 
  802ff9:	48 89 10             	mov    %rdx,(%rax)
		return 0;
  802ffc:	b8 00 00 00 00       	mov    $0x0,%eax
  803001:	e9 c5 01 00 00       	jmpq   8031cb <fork+0x245>
	}

	// Copy the address space.
	for (pn = 0; pn < PGNUM(UTOP); ) {
  803006:	c7 45 fc 00 00 00 00 	movl   $0x0,-0x4(%rbp)
  80300d:	e9 a4 00 00 00       	jmpq   8030b6 <fork+0x130>
		if (!(uvpde[pn >> 18] & PTE_P && uvpd[pn >> 9] & PTE_P)) {
  803012:	8b 45 fc             	mov    -0x4(%rbp),%eax
  803015:	c1 f8 12             	sar    $0x12,%eax
  803018:	89 c2                	mov    %eax,%edx
  80301a:	48 b8 00 00 40 80 00 	movabs $0x10080400000,%rax
  803021:	01 00 00 
  803024:	48 63 d2             	movslq %edx,%rdx
  803027:	48 8b 04 d0          	mov    (%rax,%rdx,8),%rax
  80302b:	83 e0 01             	and    $0x1,%eax
  80302e:	48 85 c0             	test   %rax,%rax
  803031:	74 21                	je     803054 <fork+0xce>
  803033:	8b 45 fc             	mov    -0x4(%rbp),%eax
  803036:	c1 f8 09             	sar    $0x9,%eax
  803039:	89 c2                	mov    %eax,%edx
  80303b:	48 b8 00 00 00 80 00 	movabs $0x10080000000,%rax
  803042:	01 00 00 
  803045:	48 63 d2             	movslq %edx,%rdx
  803048:	48 8b 04 d0          	mov    (%rax,%rdx,8),%rax
  80304c:	83 e0 01             	and    $0x1,%eax
  80304f:	48 85 c0             	test   %rax,%rax
  803052:	75 09                	jne    80305d <fork+0xd7>
			pn += NPTENTRIES;
  803054:	81 45 fc 00 02 00 00 	addl   $0x200,-0x4(%rbp)
			continue;
  80305b:	eb 59                	jmp    8030b6 <fork+0x130>
		}
		for (end_pn = pn + NPTENTRIES; pn < end_pn; pn++) {
  80305d:	8b 45 fc             	mov    -0x4(%rbp),%eax
  803060:	05 00 02 00 00       	add    $0x200,%eax
  803065:	89 45 f4             	mov    %eax,-0xc(%rbp)
  803068:	eb 44                	jmp    8030ae <fork+0x128>
			if ((uvpt[pn] & (PTE_P|PTE_U)) != (PTE_P|PTE_U))
  80306a:	48 b8 00 00 00 00 00 	movabs $0x10000000000,%rax
  803071:	01 00 00 
  803074:	8b 55 fc             	mov    -0x4(%rbp),%edx
  803077:	48 63 d2             	movslq %edx,%rdx
  80307a:	48 8b 04 d0          	mov    (%rax,%rdx,8),%rax
  80307e:	83 e0 05             	and    $0x5,%eax
  803081:	48 83 f8 05          	cmp    $0x5,%rax
  803085:	74 02                	je     803089 <fork+0x103>
				continue;
  803087:	eb 21                	jmp    8030aa <fork+0x124>
			if (pn == PPN(UXSTACKTOP - 1))
  803089:	81 7d fc ff f7 0e 00 	cmpl   $0xef7ff,-0x4(%rbp)
  803090:	75 02                	jne    803094 <fork+0x10e>
				continue;
  803092:	eb 16                	jmp    8030aa <fork+0x124>
			duppage(envid, pn);
  803094:	8b 55 fc             	mov    -0x4(%rbp),%edx
  803097:	8b 45 f8             	mov    -0x8(%rbp),%eax
  80309a:	89 d6                	mov    %edx,%esi
  80309c:	89 c7                	mov    %eax,%edi
  80309e:	48 b8 05 2e 80 00 00 	movabs $0x802e05,%rax
  8030a5:	00 00 00 
  8030a8:	ff d0                	callq  *%rax
	for (pn = 0; pn < PGNUM(UTOP); ) {
		if (!(uvpde[pn >> 18] & PTE_P && uvpd[pn >> 9] & PTE_P)) {
			pn += NPTENTRIES;
			continue;
		}
		for (end_pn = pn + NPTENTRIES; pn < end_pn; pn++) {
  8030aa:	83 45 fc 01          	addl   $0x1,-0x4(%rbp)
  8030ae:	8b 45 fc             	mov    -0x4(%rbp),%eax
  8030b1:	3b 45 f4             	cmp    -0xc(%rbp),%eax
  8030b4:	7c b4                	jl     80306a <fork+0xe4>
		thisenv = &envs[ENVX(sys_getenvid())];
		return 0;
	}

	// Copy the address space.
	for (pn = 0; pn < PGNUM(UTOP); ) {
  8030b6:	8b 45 fc             	mov    -0x4(%rbp),%eax
  8030b9:	3d ff 07 00 08       	cmp    $0x80007ff,%eax
  8030be:	0f 86 4e ff ff ff    	jbe    803012 <fork+0x8c>
			duppage(envid, pn);
		}
	}

	// The child needs to start out with a valid exception stack.
	if ((r = sys_page_alloc(envid, (void*) (UXSTACKTOP - PGSIZE), PTE_P|PTE_U|PTE_W)) < 0)
  8030c4:	8b 45 f8             	mov    -0x8(%rbp),%eax
  8030c7:	ba 07 00 00 00       	mov    $0x7,%edx
  8030cc:	be 00 f0 7f ef       	mov    $0xef7ff000,%esi
  8030d1:	89 c7                	mov    %eax,%edi
  8030d3:	48 b8 06 28 80 00 00 	movabs $0x802806,%rax
  8030da:	00 00 00 
  8030dd:	ff d0                	callq  *%rax
  8030df:	89 45 f0             	mov    %eax,-0x10(%rbp)
  8030e2:	83 7d f0 00          	cmpl   $0x0,-0x10(%rbp)
  8030e6:	79 30                	jns    803118 <fork+0x192>
		panic("allocating exception stack: %e", r);
  8030e8:	8b 45 f0             	mov    -0x10(%rbp),%eax
  8030eb:	89 c1                	mov    %eax,%ecx
  8030ed:	48 ba 88 13 82 00 00 	movabs $0x821388,%rdx
  8030f4:	00 00 00 
  8030f7:	be 9e 00 00 00       	mov    $0x9e,%esi
  8030fc:	48 bf 11 13 82 00 00 	movabs $0x821311,%rdi
  803103:	00 00 00 
  803106:	b8 00 00 00 00       	mov    $0x0,%eax
  80310b:	49 b8 e9 10 80 00 00 	movabs $0x8010e9,%r8
  803112:	00 00 00 
  803115:	41 ff d0             	callq  *%r8

	// Copy the user-mode exception entrypoint.
	if ((r = sys_env_set_pgfault_upcall(envid, thisenv->env_pgfault_upcall)) < 0)
  803118:	48 b8 70 75 b5 00 00 	movabs $0xb57570,%rax
  80311f:	00 00 00 
  803122:	48 8b 00             	mov    (%rax),%rax
  803125:	48 8b 90 f0 00 00 00 	mov    0xf0(%rax),%rdx
  80312c:	8b 45 f8             	mov    -0x8(%rbp),%eax
  80312f:	48 89 d6             	mov    %rdx,%rsi
  803132:	89 c7                	mov    %eax,%edi
  803134:	48 b8 90 29 80 00 00 	movabs $0x802990,%rax
  80313b:	00 00 00 
  80313e:	ff d0                	callq  *%rax
  803140:	89 45 f0             	mov    %eax,-0x10(%rbp)
  803143:	83 7d f0 00          	cmpl   $0x0,-0x10(%rbp)
  803147:	79 30                	jns    803179 <fork+0x1f3>
		panic("sys_env_set_pgfault_upcall: %e", r);
  803149:	8b 45 f0             	mov    -0x10(%rbp),%eax
  80314c:	89 c1                	mov    %eax,%ecx
  80314e:	48 ba a8 13 82 00 00 	movabs $0x8213a8,%rdx
  803155:	00 00 00 
  803158:	be a2 00 00 00       	mov    $0xa2,%esi
  80315d:	48 bf 11 13 82 00 00 	movabs $0x821311,%rdi
  803164:	00 00 00 
  803167:	b8 00 00 00 00       	mov    $0x0,%eax
  80316c:	49 b8 e9 10 80 00 00 	movabs $0x8010e9,%r8
  803173:	00 00 00 
  803176:	41 ff d0             	callq  *%r8


	// Okay, the child is ready for life on its own.
	if ((r = sys_env_set_status(envid, ENV_RUNNABLE)) < 0)
  803179:	8b 45 f8             	mov    -0x8(%rbp),%eax
  80317c:	be 02 00 00 00       	mov    $0x2,%esi
  803181:	89 c7                	mov    %eax,%edi
  803183:	48 b8 fb 28 80 00 00 	movabs $0x8028fb,%rax
  80318a:	00 00 00 
  80318d:	ff d0                	callq  *%rax
  80318f:	89 45 f0             	mov    %eax,-0x10(%rbp)
  803192:	83 7d f0 00          	cmpl   $0x0,-0x10(%rbp)
  803196:	79 30                	jns    8031c8 <fork+0x242>
		panic("sys_env_set_status: %e", r);
  803198:	8b 45 f0             	mov    -0x10(%rbp),%eax
  80319b:	89 c1                	mov    %eax,%ecx
  80319d:	48 ba c7 13 82 00 00 	movabs $0x8213c7,%rdx
  8031a4:	00 00 00 
  8031a7:	be a7 00 00 00       	mov    $0xa7,%esi
  8031ac:	48 bf 11 13 82 00 00 	movabs $0x821311,%rdi
  8031b3:	00 00 00 
  8031b6:	b8 00 00 00 00       	mov    $0x0,%eax
  8031bb:	49 b8 e9 10 80 00 00 	movabs $0x8010e9,%r8
  8031c2:	00 00 00 
  8031c5:	41 ff d0             	callq  *%r8

	return envid;
  8031c8:	8b 45 f8             	mov    -0x8(%rbp),%eax

}
  8031cb:	c9                   	leaveq 
  8031cc:	c3                   	retq   

00000000008031cd <sfork>:

// Challenge!
int
sfork(void)
{
  8031cd:	55                   	push   %rbp
  8031ce:	48 89 e5             	mov    %rsp,%rbp
	panic("sfork not implemented");
  8031d1:	48 ba de 13 82 00 00 	movabs $0x8213de,%rdx
  8031d8:	00 00 00 
  8031db:	be b1 00 00 00       	mov    $0xb1,%esi
  8031e0:	48 bf 11 13 82 00 00 	movabs $0x821311,%rdi
  8031e7:	00 00 00 
  8031ea:	b8 00 00 00 00       	mov    $0x0,%eax
  8031ef:	48 b9 e9 10 80 00 00 	movabs $0x8010e9,%rcx
  8031f6:	00 00 00 
  8031f9:	ff d1                	callq  *%rcx

00000000008031fb <ipc_recv>:
//   If 'pg' is null, pass sys_ipc_recv a value that it will understand
//   as meaning "no page".  (Zero is not the right value, since that's
//   a perfectly valid place to map a page.)
int32_t
ipc_recv(envid_t *from_env_store, void *pg, int *perm_store)
{
  8031fb:	55                   	push   %rbp
  8031fc:	48 89 e5             	mov    %rsp,%rbp
  8031ff:	48 83 ec 30          	sub    $0x30,%rsp
  803203:	48 89 7d e8          	mov    %rdi,-0x18(%rbp)
  803207:	48 89 75 e0          	mov    %rsi,-0x20(%rbp)
  80320b:	48 89 55 d8          	mov    %rdx,-0x28(%rbp)

	int r;

	if (!pg)
  80320f:	48 83 7d e0 00       	cmpq   $0x0,-0x20(%rbp)
  803214:	75 0e                	jne    803224 <ipc_recv+0x29>
		pg = (void*) UTOP;
  803216:	48 b8 00 00 80 00 80 	movabs $0x8000800000,%rax
  80321d:	00 00 00 
  803220:	48 89 45 e0          	mov    %rax,-0x20(%rbp)
	if ((r = sys_ipc_recv(pg)) < 0) {
  803224:	48 8b 45 e0          	mov    -0x20(%rbp),%rax
  803228:	48 89 c7             	mov    %rax,%rdi
  80322b:	48 b8 2f 2a 80 00 00 	movabs $0x802a2f,%rax
  803232:	00 00 00 
  803235:	ff d0                	callq  *%rax
  803237:	89 45 fc             	mov    %eax,-0x4(%rbp)
  80323a:	83 7d fc 00          	cmpl   $0x0,-0x4(%rbp)
  80323e:	79 27                	jns    803267 <ipc_recv+0x6c>
		if (from_env_store)
  803240:	48 83 7d e8 00       	cmpq   $0x0,-0x18(%rbp)
  803245:	74 0a                	je     803251 <ipc_recv+0x56>
			*from_env_store = 0;
  803247:	48 8b 45 e8          	mov    -0x18(%rbp),%rax
  80324b:	c7 00 00 00 00 00    	movl   $0x0,(%rax)
		if (perm_store)
  803251:	48 83 7d d8 00       	cmpq   $0x0,-0x28(%rbp)
  803256:	74 0a                	je     803262 <ipc_recv+0x67>
			*perm_store = 0;
  803258:	48 8b 45 d8          	mov    -0x28(%rbp),%rax
  80325c:	c7 00 00 00 00 00    	movl   $0x0,(%rax)
		return r;
  803262:	8b 45 fc             	mov    -0x4(%rbp),%eax
  803265:	eb 53                	jmp    8032ba <ipc_recv+0xbf>
	}
	if (from_env_store)
  803267:	48 83 7d e8 00       	cmpq   $0x0,-0x18(%rbp)
  80326c:	74 19                	je     803287 <ipc_recv+0x8c>
		*from_env_store = thisenv->env_ipc_from;
  80326e:	48 b8 70 75 b5 00 00 	movabs $0xb57570,%rax
  803275:	00 00 00 
  803278:	48 8b 00             	mov    (%rax),%rax
  80327b:	8b 90 0c 01 00 00    	mov    0x10c(%rax),%edx
  803281:	48 8b 45 e8          	mov    -0x18(%rbp),%rax
  803285:	89 10                	mov    %edx,(%rax)
	if (perm_store)
  803287:	48 83 7d d8 00       	cmpq   $0x0,-0x28(%rbp)
  80328c:	74 19                	je     8032a7 <ipc_recv+0xac>
		*perm_store = thisenv->env_ipc_perm;
  80328e:	48 b8 70 75 b5 00 00 	movabs $0xb57570,%rax
  803295:	00 00 00 
  803298:	48 8b 00             	mov    (%rax),%rax
  80329b:	8b 90 10 01 00 00    	mov    0x110(%rax),%edx
  8032a1:	48 8b 45 d8          	mov    -0x28(%rbp),%rax
  8032a5:	89 10                	mov    %edx,(%rax)
	return thisenv->env_ipc_value;
  8032a7:	48 b8 70 75 b5 00 00 	movabs $0xb57570,%rax
  8032ae:	00 00 00 
  8032b1:	48 8b 00             	mov    (%rax),%rax
  8032b4:	8b 80 08 01 00 00    	mov    0x108(%rax),%eax

}
  8032ba:	c9                   	leaveq 
  8032bb:	c3                   	retq   

00000000008032bc <ipc_send>:
//   Use sys_yield() to be CPU-friendly.
//   If 'pg' is null, pass sys_ipc_recv a value that it will understand
//   as meaning "no page".  (Zero is not the right value.)
void
ipc_send(envid_t to_env, uint32_t val, void *pg, int perm)
{
  8032bc:	55                   	push   %rbp
  8032bd:	48 89 e5             	mov    %rsp,%rbp
  8032c0:	48 83 ec 30          	sub    $0x30,%rsp
  8032c4:	89 7d ec             	mov    %edi,-0x14(%rbp)
  8032c7:	89 75 e8             	mov    %esi,-0x18(%rbp)
  8032ca:	48 89 55 e0          	mov    %rdx,-0x20(%rbp)
  8032ce:	89 4d dc             	mov    %ecx,-0x24(%rbp)

	int r;

	if (!pg)
  8032d1:	48 83 7d e0 00       	cmpq   $0x0,-0x20(%rbp)
  8032d6:	75 10                	jne    8032e8 <ipc_send+0x2c>
		pg = (void*) UTOP;
  8032d8:	48 b8 00 00 80 00 80 	movabs $0x8000800000,%rax
  8032df:	00 00 00 
  8032e2:	48 89 45 e0          	mov    %rax,-0x20(%rbp)
	while ((r = sys_ipc_try_send(to_env, val, pg, perm)) == -E_IPC_NOT_RECV) {
  8032e6:	eb 0e                	jmp    8032f6 <ipc_send+0x3a>
  8032e8:	eb 0c                	jmp    8032f6 <ipc_send+0x3a>
		sys_yield();
  8032ea:	48 b8 c8 27 80 00 00 	movabs $0x8027c8,%rax
  8032f1:	00 00 00 
  8032f4:	ff d0                	callq  *%rax

	int r;

	if (!pg)
		pg = (void*) UTOP;
	while ((r = sys_ipc_try_send(to_env, val, pg, perm)) == -E_IPC_NOT_RECV) {
  8032f6:	8b 75 e8             	mov    -0x18(%rbp),%esi
  8032f9:	8b 4d dc             	mov    -0x24(%rbp),%ecx
  8032fc:	48 8b 55 e0          	mov    -0x20(%rbp),%rdx
  803300:	8b 45 ec             	mov    -0x14(%rbp),%eax
  803303:	89 c7                	mov    %eax,%edi
  803305:	48 b8 da 29 80 00 00 	movabs $0x8029da,%rax
  80330c:	00 00 00 
  80330f:	ff d0                	callq  *%rax
  803311:	89 45 fc             	mov    %eax,-0x4(%rbp)
  803314:	83 7d fc f8          	cmpl   $0xfffffff8,-0x4(%rbp)
  803318:	74 d0                	je     8032ea <ipc_send+0x2e>
		sys_yield();
	}
	if (r < 0)
  80331a:	83 7d fc 00          	cmpl   $0x0,-0x4(%rbp)
  80331e:	79 30                	jns    803350 <ipc_send+0x94>
		panic("error in ipc_send: %e", r);
  803320:	8b 45 fc             	mov    -0x4(%rbp),%eax
  803323:	89 c1                	mov    %eax,%ecx
  803325:	48 ba f4 13 82 00 00 	movabs $0x8213f4,%rdx
  80332c:	00 00 00 
  80332f:	be 47 00 00 00       	mov    $0x47,%esi
  803334:	48 bf 0a 14 82 00 00 	movabs $0x82140a,%rdi
  80333b:	00 00 00 
  80333e:	b8 00 00 00 00       	mov    $0x0,%eax
  803343:	49 b8 e9 10 80 00 00 	movabs $0x8010e9,%r8
  80334a:	00 00 00 
  80334d:	41 ff d0             	callq  *%r8

}
  803350:	c9                   	leaveq 
  803351:	c3                   	retq   

0000000000803352 <ipc_host_recv>:
#ifdef VMM_GUEST

// Access to host IPC interface through VMCALL.
// Should behave similarly to ipc_recv, except replacing the system call with a vmcall.
int32_t
ipc_host_recv(void *pg) {
  803352:	55                   	push   %rbp
  803353:	48 89 e5             	mov    %rsp,%rbp
  803356:	53                   	push   %rbx
  803357:	48 83 ec 28          	sub    $0x28,%rsp
  80335b:	48 89 7d d8          	mov    %rdi,-0x28(%rbp)

	/* FIXME: This should be SOL 8 */
	int r = 0, val = 0;
  80335f:	c7 45 ec 00 00 00 00 	movl   $0x0,-0x14(%rbp)
  803366:	c7 45 e8 00 00 00 00 	movl   $0x0,-0x18(%rbp)

	if (!pg)
  80336d:	48 83 7d d8 00       	cmpq   $0x0,-0x28(%rbp)
  803372:	75 0e                	jne    803382 <ipc_host_recv+0x30>
		pg = (void*) UTOP;
  803374:	48 b8 00 00 80 00 80 	movabs $0x8000800000,%rax
  80337b:	00 00 00 
  80337e:	48 89 45 d8          	mov    %rax,-0x28(%rbp)
	sys_page_alloc(0, pg, PTE_U|PTE_P|PTE_W);
  803382:	48 8b 45 d8          	mov    -0x28(%rbp),%rax
  803386:	ba 07 00 00 00       	mov    $0x7,%edx
  80338b:	48 89 c6             	mov    %rax,%rsi
  80338e:	bf 00 00 00 00       	mov    $0x0,%edi
  803393:	48 b8 06 28 80 00 00 	movabs $0x802806,%rax
  80339a:	00 00 00 
  80339d:	ff d0                	callq  *%rax
	physaddr_t pa = PTE_ADDR(uvpt[PGNUM(pg)]);
  80339f:	48 8b 45 d8          	mov    -0x28(%rbp),%rax
  8033a3:	48 c1 e8 0c          	shr    $0xc,%rax
  8033a7:	48 89 c2             	mov    %rax,%rdx
  8033aa:	48 b8 00 00 00 00 00 	movabs $0x10000000000,%rax
  8033b1:	01 00 00 
  8033b4:	48 8b 04 d0          	mov    (%rax,%rdx,8),%rax
  8033b8:	48 25 00 f0 ff ff    	and    $0xfffffffffffff000,%rax
  8033be:	48 89 45 e0          	mov    %rax,-0x20(%rbp)
	asm("vmcall": "=a"(r), "=S"(val)  : "0"(VMX_VMCALL_IPCRECV), "b"(pa));
  8033c2:	b8 03 00 00 00       	mov    $0x3,%eax
  8033c7:	48 8b 55 e0          	mov    -0x20(%rbp),%rdx
  8033cb:	48 89 d3             	mov    %rdx,%rbx
  8033ce:	0f 01 c1             	vmcall 
  8033d1:	89 f2                	mov    %esi,%edx
  8033d3:	89 45 ec             	mov    %eax,-0x14(%rbp)
  8033d6:	89 55 e8             	mov    %edx,-0x18(%rbp)
	/* cprintf("Returned IPC response from host: %d %d\n", r, -val);*/
	if (r < 0) {
  8033d9:	83 7d ec 00          	cmpl   $0x0,-0x14(%rbp)
  8033dd:	79 05                	jns    8033e4 <ipc_host_recv+0x92>
		return r;
  8033df:	8b 45 ec             	mov    -0x14(%rbp),%eax
  8033e2:	eb 03                	jmp    8033e7 <ipc_host_recv+0x95>
	}
	return val;
  8033e4:	8b 45 e8             	mov    -0x18(%rbp),%eax

}
  8033e7:	48 83 c4 28          	add    $0x28,%rsp
  8033eb:	5b                   	pop    %rbx
  8033ec:	5d                   	pop    %rbp
  8033ed:	c3                   	retq   

00000000008033ee <ipc_host_send>:
// Access to host IPC interface through VMCALL.
// Should behave similarly to ipc_send, except replacing the system call with a vmcall.
// This function should also convert pg from guest virtual to guest physical for the IPC call
void
ipc_host_send(envid_t to_env, uint32_t val, void *pg, int perm)
{
  8033ee:	55                   	push   %rbp
  8033ef:	48 89 e5             	mov    %rsp,%rbp
  8033f2:	53                   	push   %rbx
  8033f3:	48 83 ec 38          	sub    $0x38,%rsp
  8033f7:	89 7d dc             	mov    %edi,-0x24(%rbp)
  8033fa:	89 75 d8             	mov    %esi,-0x28(%rbp)
  8033fd:	48 89 55 d0          	mov    %rdx,-0x30(%rbp)
  803401:	89 4d cc             	mov    %ecx,-0x34(%rbp)

	/* FIXME: This should be SOL 8 */
	int r = 0;
  803404:	c7 45 ec 00 00 00 00 	movl   $0x0,-0x14(%rbp)

	if (!pg)
  80340b:	48 83 7d d0 00       	cmpq   $0x0,-0x30(%rbp)
  803410:	75 0e                	jne    803420 <ipc_host_send+0x32>
		pg = (void*) UTOP;
  803412:	48 b8 00 00 80 00 80 	movabs $0x8000800000,%rax
  803419:	00 00 00 
  80341c:	48 89 45 d0          	mov    %rax,-0x30(%rbp)
	// Convert pg from guest virtual address to guest physical address.
	physaddr_t pa = PTE_ADDR(uvpt[PGNUM(pg)]);
  803420:	48 8b 45 d0          	mov    -0x30(%rbp),%rax
  803424:	48 c1 e8 0c          	shr    $0xc,%rax
  803428:	48 89 c2             	mov    %rax,%rdx
  80342b:	48 b8 00 00 00 00 00 	movabs $0x10000000000,%rax
  803432:	01 00 00 
  803435:	48 8b 04 d0          	mov    (%rax,%rdx,8),%rax
  803439:	48 25 00 f0 ff ff    	and    $0xfffffffffffff000,%rax
  80343f:	48 89 45 e0          	mov    %rax,-0x20(%rbp)
	asm("vmcall": "=a"(r): "0"(VMX_VMCALL_IPCSEND), "b"(to_env), "c"(val), 
  803443:	b8 02 00 00 00       	mov    $0x2,%eax
  803448:	8b 7d dc             	mov    -0x24(%rbp),%edi
  80344b:	8b 4d d8             	mov    -0x28(%rbp),%ecx
  80344e:	48 8b 55 e0          	mov    -0x20(%rbp),%rdx
  803452:	8b 75 cc             	mov    -0x34(%rbp),%esi
  803455:	89 fb                	mov    %edi,%ebx
  803457:	0f 01 c1             	vmcall 
  80345a:	89 45 ec             	mov    %eax,-0x14(%rbp)
            "d"(pa), "S"(perm));
	while(r == -E_IPC_NOT_RECV) {
  80345d:	eb 26                	jmp    803485 <ipc_host_send+0x97>
		sys_yield();
  80345f:	48 b8 c8 27 80 00 00 	movabs $0x8027c8,%rax
  803466:	00 00 00 
  803469:	ff d0                	callq  *%rax
		asm("vmcall": "=a"(r): "0"(VMX_VMCALL_IPCSEND), "b"(to_env), "c"(val), 
  80346b:	b8 02 00 00 00       	mov    $0x2,%eax
  803470:	8b 7d dc             	mov    -0x24(%rbp),%edi
  803473:	8b 4d d8             	mov    -0x28(%rbp),%ecx
  803476:	48 8b 55 e0          	mov    -0x20(%rbp),%rdx
  80347a:	8b 75 cc             	mov    -0x34(%rbp),%esi
  80347d:	89 fb                	mov    %edi,%ebx
  80347f:	0f 01 c1             	vmcall 
  803482:	89 45 ec             	mov    %eax,-0x14(%rbp)
		pg = (void*) UTOP;
	// Convert pg from guest virtual address to guest physical address.
	physaddr_t pa = PTE_ADDR(uvpt[PGNUM(pg)]);
	asm("vmcall": "=a"(r): "0"(VMX_VMCALL_IPCSEND), "b"(to_env), "c"(val), 
            "d"(pa), "S"(perm));
	while(r == -E_IPC_NOT_RECV) {
  803485:	83 7d ec f8          	cmpl   $0xfffffff8,-0x14(%rbp)
  803489:	74 d4                	je     80345f <ipc_host_send+0x71>
		sys_yield();
		asm("vmcall": "=a"(r): "0"(VMX_VMCALL_IPCSEND), "b"(to_env), "c"(val), 
		    "d"(pa), "S"(perm));
	}
	if (r < 0)
  80348b:	83 7d ec 00          	cmpl   $0x0,-0x14(%rbp)
  80348f:	79 30                	jns    8034c1 <ipc_host_send+0xd3>
		panic("error in ipc_send: %e", r);
  803491:	8b 45 ec             	mov    -0x14(%rbp),%eax
  803494:	89 c1                	mov    %eax,%ecx
  803496:	48 ba f4 13 82 00 00 	movabs $0x8213f4,%rdx
  80349d:	00 00 00 
  8034a0:	be 79 00 00 00       	mov    $0x79,%esi
  8034a5:	48 bf 0a 14 82 00 00 	movabs $0x82140a,%rdi
  8034ac:	00 00 00 
  8034af:	b8 00 00 00 00       	mov    $0x0,%eax
  8034b4:	49 b8 e9 10 80 00 00 	movabs $0x8010e9,%r8
  8034bb:	00 00 00 
  8034be:	41 ff d0             	callq  *%r8

}
  8034c1:	48 83 c4 38          	add    $0x38,%rsp
  8034c5:	5b                   	pop    %rbx
  8034c6:	5d                   	pop    %rbp
  8034c7:	c3                   	retq   

00000000008034c8 <ipc_find_env>:
// Find the first environment of the given type.  We'll use this to
// find special environments.
// Returns 0 if no such environment exists.
envid_t
ipc_find_env(enum EnvType type)
{
  8034c8:	55                   	push   %rbp
  8034c9:	48 89 e5             	mov    %rsp,%rbp
  8034cc:	48 83 ec 14          	sub    $0x14,%rsp
  8034d0:	89 7d ec             	mov    %edi,-0x14(%rbp)
	int i;
	for (i = 0; i < NENV; i++) {
  8034d3:	c7 45 fc 00 00 00 00 	movl   $0x0,-0x4(%rbp)
  8034da:	eb 4e                	jmp    80352a <ipc_find_env+0x62>
		if (envs[i].env_type == type)
  8034dc:	48 ba 00 00 80 00 80 	movabs $0x8000800000,%rdx
  8034e3:	00 00 00 
  8034e6:	8b 45 fc             	mov    -0x4(%rbp),%eax
  8034e9:	48 98                	cltq   
  8034eb:	48 69 c0 68 01 00 00 	imul   $0x168,%rax,%rax
  8034f2:	48 01 d0             	add    %rdx,%rax
  8034f5:	48 05 d0 00 00 00    	add    $0xd0,%rax
  8034fb:	8b 00                	mov    (%rax),%eax
  8034fd:	3b 45 ec             	cmp    -0x14(%rbp),%eax
  803500:	75 24                	jne    803526 <ipc_find_env+0x5e>
			return envs[i].env_id;
  803502:	48 ba 00 00 80 00 80 	movabs $0x8000800000,%rdx
  803509:	00 00 00 
  80350c:	8b 45 fc             	mov    -0x4(%rbp),%eax
  80350f:	48 98                	cltq   
  803511:	48 69 c0 68 01 00 00 	imul   $0x168,%rax,%rax
  803518:	48 01 d0             	add    %rdx,%rax
  80351b:	48 05 c0 00 00 00    	add    $0xc0,%rax
  803521:	8b 40 08             	mov    0x8(%rax),%eax
  803524:	eb 12                	jmp    803538 <ipc_find_env+0x70>
// Returns 0 if no such environment exists.
envid_t
ipc_find_env(enum EnvType type)
{
	int i;
	for (i = 0; i < NENV; i++) {
  803526:	83 45 fc 01          	addl   $0x1,-0x4(%rbp)
  80352a:	81 7d fc ff 03 00 00 	cmpl   $0x3ff,-0x4(%rbp)
  803531:	7e a9                	jle    8034dc <ipc_find_env+0x14>
		if (envs[i].env_type == type)
			return envs[i].env_id;
	}
	return 0;
  803533:	b8 00 00 00 00       	mov    $0x0,%eax
}
  803538:	c9                   	leaveq 
  803539:	c3                   	retq   

000000000080353a <fd2num>:
// File descriptor manipulators
// --------------------------------------------------------------

uint64_t
fd2num(struct Fd *fd)
{
  80353a:	55                   	push   %rbp
  80353b:	48 89 e5             	mov    %rsp,%rbp
  80353e:	48 83 ec 08          	sub    $0x8,%rsp
  803542:	48 89 7d f8          	mov    %rdi,-0x8(%rbp)
	return ((uintptr_t) fd - FDTABLE) / PGSIZE;
  803546:	48 8b 55 f8          	mov    -0x8(%rbp),%rdx
  80354a:	48 b8 00 00 00 30 ff 	movabs $0xffffffff30000000,%rax
  803551:	ff ff ff 
  803554:	48 01 d0             	add    %rdx,%rax
  803557:	48 c1 e8 0c          	shr    $0xc,%rax
}
  80355b:	c9                   	leaveq 
  80355c:	c3                   	retq   

000000000080355d <fd2data>:

char*
fd2data(struct Fd *fd)
{
  80355d:	55                   	push   %rbp
  80355e:	48 89 e5             	mov    %rsp,%rbp
  803561:	48 83 ec 08          	sub    $0x8,%rsp
  803565:	48 89 7d f8          	mov    %rdi,-0x8(%rbp)
	return INDEX2DATA(fd2num(fd));
  803569:	48 8b 45 f8          	mov    -0x8(%rbp),%rax
  80356d:	48 89 c7             	mov    %rax,%rdi
  803570:	48 b8 3a 35 80 00 00 	movabs $0x80353a,%rax
  803577:	00 00 00 
  80357a:	ff d0                	callq  *%rax
  80357c:	48 05 20 00 0d 00    	add    $0xd0020,%rax
  803582:	48 c1 e0 0c          	shl    $0xc,%rax
}
  803586:	c9                   	leaveq 
  803587:	c3                   	retq   

0000000000803588 <fd_alloc>:
// Returns 0 on success, < 0 on error.  Errors are:
//	-E_MAX_FD: no more file descriptors
// On error, *fd_store is set to 0.
int
fd_alloc(struct Fd **fd_store)
{
  803588:	55                   	push   %rbp
  803589:	48 89 e5             	mov    %rsp,%rbp
  80358c:	48 83 ec 18          	sub    $0x18,%rsp
  803590:	48 89 7d e8          	mov    %rdi,-0x18(%rbp)
	int i;
	struct Fd *fd;

	for (i = 0; i < MAXFD; i++) {
  803594:	c7 45 fc 00 00 00 00 	movl   $0x0,-0x4(%rbp)
  80359b:	eb 6b                	jmp    803608 <fd_alloc+0x80>
		fd = INDEX2FD(i);
  80359d:	8b 45 fc             	mov    -0x4(%rbp),%eax
  8035a0:	48 98                	cltq   
  8035a2:	48 05 00 00 0d 00    	add    $0xd0000,%rax
  8035a8:	48 c1 e0 0c          	shl    $0xc,%rax
  8035ac:	48 89 45 f0          	mov    %rax,-0x10(%rbp)
		if ((uvpd[VPD(fd)] & PTE_P) == 0 || (uvpt[PGNUM(fd)] & PTE_P) == 0) {
  8035b0:	48 8b 45 f0          	mov    -0x10(%rbp),%rax
  8035b4:	48 c1 e8 15          	shr    $0x15,%rax
  8035b8:	48 89 c2             	mov    %rax,%rdx
  8035bb:	48 b8 00 00 00 80 00 	movabs $0x10080000000,%rax
  8035c2:	01 00 00 
  8035c5:	48 8b 04 d0          	mov    (%rax,%rdx,8),%rax
  8035c9:	83 e0 01             	and    $0x1,%eax
  8035cc:	48 85 c0             	test   %rax,%rax
  8035cf:	74 21                	je     8035f2 <fd_alloc+0x6a>
  8035d1:	48 8b 45 f0          	mov    -0x10(%rbp),%rax
  8035d5:	48 c1 e8 0c          	shr    $0xc,%rax
  8035d9:	48 89 c2             	mov    %rax,%rdx
  8035dc:	48 b8 00 00 00 00 00 	movabs $0x10000000000,%rax
  8035e3:	01 00 00 
  8035e6:	48 8b 04 d0          	mov    (%rax,%rdx,8),%rax
  8035ea:	83 e0 01             	and    $0x1,%eax
  8035ed:	48 85 c0             	test   %rax,%rax
  8035f0:	75 12                	jne    803604 <fd_alloc+0x7c>
			*fd_store = fd;
  8035f2:	48 8b 45 e8          	mov    -0x18(%rbp),%rax
  8035f6:	48 8b 55 f0          	mov    -0x10(%rbp),%rdx
  8035fa:	48 89 10             	mov    %rdx,(%rax)
			return 0;
  8035fd:	b8 00 00 00 00       	mov    $0x0,%eax
  803602:	eb 1a                	jmp    80361e <fd_alloc+0x96>
fd_alloc(struct Fd **fd_store)
{
	int i;
	struct Fd *fd;

	for (i = 0; i < MAXFD; i++) {
  803604:	83 45 fc 01          	addl   $0x1,-0x4(%rbp)
  803608:	83 7d fc 1f          	cmpl   $0x1f,-0x4(%rbp)
  80360c:	7e 8f                	jle    80359d <fd_alloc+0x15>
		if ((uvpd[VPD(fd)] & PTE_P) == 0 || (uvpt[PGNUM(fd)] & PTE_P) == 0) {
			*fd_store = fd;
			return 0;
		}
	}
	*fd_store = 0;
  80360e:	48 8b 45 e8          	mov    -0x18(%rbp),%rax
  803612:	48 c7 00 00 00 00 00 	movq   $0x0,(%rax)
	return -E_MAX_OPEN;
  803619:	b8 f5 ff ff ff       	mov    $0xfffffff5,%eax
}
  80361e:	c9                   	leaveq 
  80361f:	c3                   	retq   

0000000000803620 <fd_lookup>:
// Returns 0 on success (the page is in range and mapped), < 0 on error.
// Errors are:
//	-E_INVAL: fdnum was either not in range or not mapped.
int
fd_lookup(int fdnum, struct Fd **fd_store)
{
  803620:	55                   	push   %rbp
  803621:	48 89 e5             	mov    %rsp,%rbp
  803624:	48 83 ec 20          	sub    $0x20,%rsp
  803628:	89 7d ec             	mov    %edi,-0x14(%rbp)
  80362b:	48 89 75 e0          	mov    %rsi,-0x20(%rbp)
	struct Fd *fd;

	if (fdnum < 0 || fdnum >= MAXFD) {
  80362f:	83 7d ec 00          	cmpl   $0x0,-0x14(%rbp)
  803633:	78 06                	js     80363b <fd_lookup+0x1b>
  803635:	83 7d ec 1f          	cmpl   $0x1f,-0x14(%rbp)
  803639:	7e 07                	jle    803642 <fd_lookup+0x22>
		if (debug)
			cprintf("[%08x] bad fd %d\n", thisenv->env_id, fdnum);
		return -E_INVAL;
  80363b:	b8 fd ff ff ff       	mov    $0xfffffffd,%eax
  803640:	eb 6c                	jmp    8036ae <fd_lookup+0x8e>
	}
	fd = INDEX2FD(fdnum);
  803642:	8b 45 ec             	mov    -0x14(%rbp),%eax
  803645:	48 98                	cltq   
  803647:	48 05 00 00 0d 00    	add    $0xd0000,%rax
  80364d:	48 c1 e0 0c          	shl    $0xc,%rax
  803651:	48 89 45 f8          	mov    %rax,-0x8(%rbp)
	if (!(uvpd[VPD(fd)] & PTE_P) || !(uvpt[PGNUM(fd)] & PTE_P)) {
  803655:	48 8b 45 f8          	mov    -0x8(%rbp),%rax
  803659:	48 c1 e8 15          	shr    $0x15,%rax
  80365d:	48 89 c2             	mov    %rax,%rdx
  803660:	48 b8 00 00 00 80 00 	movabs $0x10080000000,%rax
  803667:	01 00 00 
  80366a:	48 8b 04 d0          	mov    (%rax,%rdx,8),%rax
  80366e:	83 e0 01             	and    $0x1,%eax
  803671:	48 85 c0             	test   %rax,%rax
  803674:	74 21                	je     803697 <fd_lookup+0x77>
  803676:	48 8b 45 f8          	mov    -0x8(%rbp),%rax
  80367a:	48 c1 e8 0c          	shr    $0xc,%rax
  80367e:	48 89 c2             	mov    %rax,%rdx
  803681:	48 b8 00 00 00 00 00 	movabs $0x10000000000,%rax
  803688:	01 00 00 
  80368b:	48 8b 04 d0          	mov    (%rax,%rdx,8),%rax
  80368f:	83 e0 01             	and    $0x1,%eax
  803692:	48 85 c0             	test   %rax,%rax
  803695:	75 07                	jne    80369e <fd_lookup+0x7e>
		if (debug)
			cprintf("[%08x] closed fd %d\n", thisenv->env_id, fdnum);
		return -E_INVAL;
  803697:	b8 fd ff ff ff       	mov    $0xfffffffd,%eax
  80369c:	eb 10                	jmp    8036ae <fd_lookup+0x8e>
	}
	*fd_store = fd;
  80369e:	48 8b 45 e0          	mov    -0x20(%rbp),%rax
  8036a2:	48 8b 55 f8          	mov    -0x8(%rbp),%rdx
  8036a6:	48 89 10             	mov    %rdx,(%rax)
	return 0;
  8036a9:	b8 00 00 00 00       	mov    $0x0,%eax
}
  8036ae:	c9                   	leaveq 
  8036af:	c3                   	retq   

00000000008036b0 <fd_close>:
// If 'must_exist' is 1, then fd_close returns -E_INVAL when passed a
// closed or nonexistent file descriptor.
// Returns 0 on success, < 0 on error.
int
fd_close(struct Fd *fd, bool must_exist)
{
  8036b0:	55                   	push   %rbp
  8036b1:	48 89 e5             	mov    %rsp,%rbp
  8036b4:	48 83 ec 30          	sub    $0x30,%rsp
  8036b8:	48 89 7d d8          	mov    %rdi,-0x28(%rbp)
  8036bc:	89 f0                	mov    %esi,%eax
  8036be:	88 45 d4             	mov    %al,-0x2c(%rbp)
	struct Fd *fd2;
	struct Dev *dev;
	int r;
	if ((r = fd_lookup(fd2num(fd), &fd2)) < 0
  8036c1:	48 8b 45 d8          	mov    -0x28(%rbp),%rax
  8036c5:	48 89 c7             	mov    %rax,%rdi
  8036c8:	48 b8 3a 35 80 00 00 	movabs $0x80353a,%rax
  8036cf:	00 00 00 
  8036d2:	ff d0                	callq  *%rax
  8036d4:	48 8d 55 f0          	lea    -0x10(%rbp),%rdx
  8036d8:	48 89 d6             	mov    %rdx,%rsi
  8036db:	89 c7                	mov    %eax,%edi
  8036dd:	48 b8 20 36 80 00 00 	movabs $0x803620,%rax
  8036e4:	00 00 00 
  8036e7:	ff d0                	callq  *%rax
  8036e9:	89 45 fc             	mov    %eax,-0x4(%rbp)
  8036ec:	83 7d fc 00          	cmpl   $0x0,-0x4(%rbp)
  8036f0:	78 0a                	js     8036fc <fd_close+0x4c>
	    || fd != fd2)
  8036f2:	48 8b 45 f0          	mov    -0x10(%rbp),%rax
  8036f6:	48 39 45 d8          	cmp    %rax,-0x28(%rbp)
  8036fa:	74 12                	je     80370e <fd_close+0x5e>
		return (must_exist ? r : 0);
  8036fc:	80 7d d4 00          	cmpb   $0x0,-0x2c(%rbp)
  803700:	74 05                	je     803707 <fd_close+0x57>
  803702:	8b 45 fc             	mov    -0x4(%rbp),%eax
  803705:	eb 05                	jmp    80370c <fd_close+0x5c>
  803707:	b8 00 00 00 00       	mov    $0x0,%eax
  80370c:	eb 69                	jmp    803777 <fd_close+0xc7>
	if ((r = dev_lookup(fd->fd_dev_id, &dev)) >= 0) {
  80370e:	48 8b 45 d8          	mov    -0x28(%rbp),%rax
  803712:	8b 00                	mov    (%rax),%eax
  803714:	48 8d 55 e8          	lea    -0x18(%rbp),%rdx
  803718:	48 89 d6             	mov    %rdx,%rsi
  80371b:	89 c7                	mov    %eax,%edi
  80371d:	48 b8 79 37 80 00 00 	movabs $0x803779,%rax
  803724:	00 00 00 
  803727:	ff d0                	callq  *%rax
  803729:	89 45 fc             	mov    %eax,-0x4(%rbp)
  80372c:	83 7d fc 00          	cmpl   $0x0,-0x4(%rbp)
  803730:	78 2a                	js     80375c <fd_close+0xac>
		if (dev->dev_close)
  803732:	48 8b 45 e8          	mov    -0x18(%rbp),%rax
  803736:	48 8b 40 20          	mov    0x20(%rax),%rax
  80373a:	48 85 c0             	test   %rax,%rax
  80373d:	74 16                	je     803755 <fd_close+0xa5>
			r = (*dev->dev_close)(fd);
  80373f:	48 8b 45 e8          	mov    -0x18(%rbp),%rax
  803743:	48 8b 40 20          	mov    0x20(%rax),%rax
  803747:	48 8b 55 d8          	mov    -0x28(%rbp),%rdx
  80374b:	48 89 d7             	mov    %rdx,%rdi
  80374e:	ff d0                	callq  *%rax
  803750:	89 45 fc             	mov    %eax,-0x4(%rbp)
  803753:	eb 07                	jmp    80375c <fd_close+0xac>
		else
			r = 0;
  803755:	c7 45 fc 00 00 00 00 	movl   $0x0,-0x4(%rbp)
	}
	// Make sure fd is unmapped.  Might be a no-op if
	// (*dev->dev_close)(fd) already unmapped it.
	(void) sys_page_unmap(0, fd);
  80375c:	48 8b 45 d8          	mov    -0x28(%rbp),%rax
  803760:	48 89 c6             	mov    %rax,%rsi
  803763:	bf 00 00 00 00       	mov    $0x0,%edi
  803768:	48 b8 b1 28 80 00 00 	movabs $0x8028b1,%rax
  80376f:	00 00 00 
  803772:	ff d0                	callq  *%rax
	return r;
  803774:	8b 45 fc             	mov    -0x4(%rbp),%eax
}
  803777:	c9                   	leaveq 
  803778:	c3                   	retq   

0000000000803779 <dev_lookup>:
	0
};

int
dev_lookup(int dev_id, struct Dev **dev)
{
  803779:	55                   	push   %rbp
  80377a:	48 89 e5             	mov    %rsp,%rbp
  80377d:	48 83 ec 20          	sub    $0x20,%rsp
  803781:	89 7d ec             	mov    %edi,-0x14(%rbp)
  803784:	48 89 75 e0          	mov    %rsi,-0x20(%rbp)
	int i;
	for (i = 0; devtab[i]; i++)
  803788:	c7 45 fc 00 00 00 00 	movl   $0x0,-0x4(%rbp)
  80378f:	eb 41                	jmp    8037d2 <dev_lookup+0x59>
		if (devtab[i]->dev_id == dev_id) {
  803791:	48 b8 20 80 82 00 00 	movabs $0x828020,%rax
  803798:	00 00 00 
  80379b:	8b 55 fc             	mov    -0x4(%rbp),%edx
  80379e:	48 63 d2             	movslq %edx,%rdx
  8037a1:	48 8b 04 d0          	mov    (%rax,%rdx,8),%rax
  8037a5:	8b 00                	mov    (%rax),%eax
  8037a7:	3b 45 ec             	cmp    -0x14(%rbp),%eax
  8037aa:	75 22                	jne    8037ce <dev_lookup+0x55>
			*dev = devtab[i];
  8037ac:	48 b8 20 80 82 00 00 	movabs $0x828020,%rax
  8037b3:	00 00 00 
  8037b6:	8b 55 fc             	mov    -0x4(%rbp),%edx
  8037b9:	48 63 d2             	movslq %edx,%rdx
  8037bc:	48 8b 14 d0          	mov    (%rax,%rdx,8),%rdx
  8037c0:	48 8b 45 e0          	mov    -0x20(%rbp),%rax
  8037c4:	48 89 10             	mov    %rdx,(%rax)
			return 0;
  8037c7:	b8 00 00 00 00       	mov    $0x0,%eax
  8037cc:	eb 60                	jmp    80382e <dev_lookup+0xb5>

int
dev_lookup(int dev_id, struct Dev **dev)
{
	int i;
	for (i = 0; devtab[i]; i++)
  8037ce:	83 45 fc 01          	addl   $0x1,-0x4(%rbp)
  8037d2:	48 b8 20 80 82 00 00 	movabs $0x828020,%rax
  8037d9:	00 00 00 
  8037dc:	8b 55 fc             	mov    -0x4(%rbp),%edx
  8037df:	48 63 d2             	movslq %edx,%rdx
  8037e2:	48 8b 04 d0          	mov    (%rax,%rdx,8),%rax
  8037e6:	48 85 c0             	test   %rax,%rax
  8037e9:	75 a6                	jne    803791 <dev_lookup+0x18>
		if (devtab[i]->dev_id == dev_id) {
			*dev = devtab[i];
			return 0;
		}
	cprintf("[%08x] unknown device type %d\n", thisenv->env_id, dev_id);
  8037eb:	48 b8 70 75 b5 00 00 	movabs $0xb57570,%rax
  8037f2:	00 00 00 
  8037f5:	48 8b 00             	mov    (%rax),%rax
  8037f8:	8b 80 c8 00 00 00    	mov    0xc8(%rax),%eax
  8037fe:	8b 55 ec             	mov    -0x14(%rbp),%edx
  803801:	89 c6                	mov    %eax,%esi
  803803:	48 bf 18 14 82 00 00 	movabs $0x821418,%rdi
  80380a:	00 00 00 
  80380d:	b8 00 00 00 00       	mov    $0x0,%eax
  803812:	48 b9 22 13 80 00 00 	movabs $0x801322,%rcx
  803819:	00 00 00 
  80381c:	ff d1                	callq  *%rcx
	*dev = 0;
  80381e:	48 8b 45 e0          	mov    -0x20(%rbp),%rax
  803822:	48 c7 00 00 00 00 00 	movq   $0x0,(%rax)
	return -E_INVAL;
  803829:	b8 fd ff ff ff       	mov    $0xfffffffd,%eax
}
  80382e:	c9                   	leaveq 
  80382f:	c3                   	retq   

0000000000803830 <close>:

int
close(int fdnum)
{
  803830:	55                   	push   %rbp
  803831:	48 89 e5             	mov    %rsp,%rbp
  803834:	48 83 ec 20          	sub    $0x20,%rsp
  803838:	89 7d ec             	mov    %edi,-0x14(%rbp)
	struct Fd *fd;
	int r;

	if ((r = fd_lookup(fdnum, &fd)) < 0)
  80383b:	48 8d 55 f0          	lea    -0x10(%rbp),%rdx
  80383f:	8b 45 ec             	mov    -0x14(%rbp),%eax
  803842:	48 89 d6             	mov    %rdx,%rsi
  803845:	89 c7                	mov    %eax,%edi
  803847:	48 b8 20 36 80 00 00 	movabs $0x803620,%rax
  80384e:	00 00 00 
  803851:	ff d0                	callq  *%rax
  803853:	89 45 fc             	mov    %eax,-0x4(%rbp)
  803856:	83 7d fc 00          	cmpl   $0x0,-0x4(%rbp)
  80385a:	79 05                	jns    803861 <close+0x31>
		return r;
  80385c:	8b 45 fc             	mov    -0x4(%rbp),%eax
  80385f:	eb 18                	jmp    803879 <close+0x49>
	else
		return fd_close(fd, 1);
  803861:	48 8b 45 f0          	mov    -0x10(%rbp),%rax
  803865:	be 01 00 00 00       	mov    $0x1,%esi
  80386a:	48 89 c7             	mov    %rax,%rdi
  80386d:	48 b8 b0 36 80 00 00 	movabs $0x8036b0,%rax
  803874:	00 00 00 
  803877:	ff d0                	callq  *%rax
}
  803879:	c9                   	leaveq 
  80387a:	c3                   	retq   

000000000080387b <close_all>:

void
close_all(void)
{
  80387b:	55                   	push   %rbp
  80387c:	48 89 e5             	mov    %rsp,%rbp
  80387f:	48 83 ec 10          	sub    $0x10,%rsp
	int i;
	for (i = 0; i < MAXFD; i++)
  803883:	c7 45 fc 00 00 00 00 	movl   $0x0,-0x4(%rbp)
  80388a:	eb 15                	jmp    8038a1 <close_all+0x26>
		close(i);
  80388c:	8b 45 fc             	mov    -0x4(%rbp),%eax
  80388f:	89 c7                	mov    %eax,%edi
  803891:	48 b8 30 38 80 00 00 	movabs $0x803830,%rax
  803898:	00 00 00 
  80389b:	ff d0                	callq  *%rax

void
close_all(void)
{
	int i;
	for (i = 0; i < MAXFD; i++)
  80389d:	83 45 fc 01          	addl   $0x1,-0x4(%rbp)
  8038a1:	83 7d fc 1f          	cmpl   $0x1f,-0x4(%rbp)
  8038a5:	7e e5                	jle    80388c <close_all+0x11>
		close(i);
}
  8038a7:	c9                   	leaveq 
  8038a8:	c3                   	retq   

00000000008038a9 <dup>:
// file and the file offset of the other.
// Closes any previously open file descriptor at 'newfdnum'.
// This is implemented using virtual memory tricks (of course!).
int
dup(int oldfdnum, int newfdnum)
{
  8038a9:	55                   	push   %rbp
  8038aa:	48 89 e5             	mov    %rsp,%rbp
  8038ad:	48 83 ec 40          	sub    $0x40,%rsp
  8038b1:	89 7d cc             	mov    %edi,-0x34(%rbp)
  8038b4:	89 75 c8             	mov    %esi,-0x38(%rbp)
	int r;
	char *ova, *nva;
	pte_t pte;
	struct Fd *oldfd, *newfd;

	if ((r = fd_lookup(oldfdnum, &oldfd)) < 0)
  8038b7:	48 8d 55 d8          	lea    -0x28(%rbp),%rdx
  8038bb:	8b 45 cc             	mov    -0x34(%rbp),%eax
  8038be:	48 89 d6             	mov    %rdx,%rsi
  8038c1:	89 c7                	mov    %eax,%edi
  8038c3:	48 b8 20 36 80 00 00 	movabs $0x803620,%rax
  8038ca:	00 00 00 
  8038cd:	ff d0                	callq  *%rax
  8038cf:	89 45 fc             	mov    %eax,-0x4(%rbp)
  8038d2:	83 7d fc 00          	cmpl   $0x0,-0x4(%rbp)
  8038d6:	79 08                	jns    8038e0 <dup+0x37>
		return r;
  8038d8:	8b 45 fc             	mov    -0x4(%rbp),%eax
  8038db:	e9 70 01 00 00       	jmpq   803a50 <dup+0x1a7>
	close(newfdnum);
  8038e0:	8b 45 c8             	mov    -0x38(%rbp),%eax
  8038e3:	89 c7                	mov    %eax,%edi
  8038e5:	48 b8 30 38 80 00 00 	movabs $0x803830,%rax
  8038ec:	00 00 00 
  8038ef:	ff d0                	callq  *%rax

	newfd = INDEX2FD(newfdnum);
  8038f1:	8b 45 c8             	mov    -0x38(%rbp),%eax
  8038f4:	48 98                	cltq   
  8038f6:	48 05 00 00 0d 00    	add    $0xd0000,%rax
  8038fc:	48 c1 e0 0c          	shl    $0xc,%rax
  803900:	48 89 45 f0          	mov    %rax,-0x10(%rbp)
	ova = fd2data(oldfd);
  803904:	48 8b 45 d8          	mov    -0x28(%rbp),%rax
  803908:	48 89 c7             	mov    %rax,%rdi
  80390b:	48 b8 5d 35 80 00 00 	movabs $0x80355d,%rax
  803912:	00 00 00 
  803915:	ff d0                	callq  *%rax
  803917:	48 89 45 e8          	mov    %rax,-0x18(%rbp)
	nva = fd2data(newfd);
  80391b:	48 8b 45 f0          	mov    -0x10(%rbp),%rax
  80391f:	48 89 c7             	mov    %rax,%rdi
  803922:	48 b8 5d 35 80 00 00 	movabs $0x80355d,%rax
  803929:	00 00 00 
  80392c:	ff d0                	callq  *%rax
  80392e:	48 89 45 e0          	mov    %rax,-0x20(%rbp)

	if ((uvpd[VPD(ova)] & PTE_P) && (uvpt[PGNUM(ova)] & PTE_P))
  803932:	48 8b 45 e8          	mov    -0x18(%rbp),%rax
  803936:	48 c1 e8 15          	shr    $0x15,%rax
  80393a:	48 89 c2             	mov    %rax,%rdx
  80393d:	48 b8 00 00 00 80 00 	movabs $0x10080000000,%rax
  803944:	01 00 00 
  803947:	48 8b 04 d0          	mov    (%rax,%rdx,8),%rax
  80394b:	83 e0 01             	and    $0x1,%eax
  80394e:	48 85 c0             	test   %rax,%rax
  803951:	74 73                	je     8039c6 <dup+0x11d>
  803953:	48 8b 45 e8          	mov    -0x18(%rbp),%rax
  803957:	48 c1 e8 0c          	shr    $0xc,%rax
  80395b:	48 89 c2             	mov    %rax,%rdx
  80395e:	48 b8 00 00 00 00 00 	movabs $0x10000000000,%rax
  803965:	01 00 00 
  803968:	48 8b 04 d0          	mov    (%rax,%rdx,8),%rax
  80396c:	83 e0 01             	and    $0x1,%eax
  80396f:	48 85 c0             	test   %rax,%rax
  803972:	74 52                	je     8039c6 <dup+0x11d>
		if ((r = sys_page_map(0, ova, 0, nva, uvpt[PGNUM(ova)] & PTE_SYSCALL)) < 0)
  803974:	48 8b 45 e8          	mov    -0x18(%rbp),%rax
  803978:	48 c1 e8 0c          	shr    $0xc,%rax
  80397c:	48 89 c2             	mov    %rax,%rdx
  80397f:	48 b8 00 00 00 00 00 	movabs $0x10000000000,%rax
  803986:	01 00 00 
  803989:	48 8b 04 d0          	mov    (%rax,%rdx,8),%rax
  80398d:	25 07 0e 00 00       	and    $0xe07,%eax
  803992:	89 c1                	mov    %eax,%ecx
  803994:	48 8b 55 e0          	mov    -0x20(%rbp),%rdx
  803998:	48 8b 45 e8          	mov    -0x18(%rbp),%rax
  80399c:	41 89 c8             	mov    %ecx,%r8d
  80399f:	48 89 d1             	mov    %rdx,%rcx
  8039a2:	ba 00 00 00 00       	mov    $0x0,%edx
  8039a7:	48 89 c6             	mov    %rax,%rsi
  8039aa:	bf 00 00 00 00       	mov    $0x0,%edi
  8039af:	48 b8 56 28 80 00 00 	movabs $0x802856,%rax
  8039b6:	00 00 00 
  8039b9:	ff d0                	callq  *%rax
  8039bb:	89 45 fc             	mov    %eax,-0x4(%rbp)
  8039be:	83 7d fc 00          	cmpl   $0x0,-0x4(%rbp)
  8039c2:	79 02                	jns    8039c6 <dup+0x11d>
			goto err;
  8039c4:	eb 57                	jmp    803a1d <dup+0x174>
	if ((r = sys_page_map(0, oldfd, 0, newfd, uvpt[PGNUM(oldfd)] & PTE_SYSCALL)) < 0)
  8039c6:	48 8b 45 d8          	mov    -0x28(%rbp),%rax
  8039ca:	48 c1 e8 0c          	shr    $0xc,%rax
  8039ce:	48 89 c2             	mov    %rax,%rdx
  8039d1:	48 b8 00 00 00 00 00 	movabs $0x10000000000,%rax
  8039d8:	01 00 00 
  8039db:	48 8b 04 d0          	mov    (%rax,%rdx,8),%rax
  8039df:	25 07 0e 00 00       	and    $0xe07,%eax
  8039e4:	89 c1                	mov    %eax,%ecx
  8039e6:	48 8b 45 d8          	mov    -0x28(%rbp),%rax
  8039ea:	48 8b 55 f0          	mov    -0x10(%rbp),%rdx
  8039ee:	41 89 c8             	mov    %ecx,%r8d
  8039f1:	48 89 d1             	mov    %rdx,%rcx
  8039f4:	ba 00 00 00 00       	mov    $0x0,%edx
  8039f9:	48 89 c6             	mov    %rax,%rsi
  8039fc:	bf 00 00 00 00       	mov    $0x0,%edi
  803a01:	48 b8 56 28 80 00 00 	movabs $0x802856,%rax
  803a08:	00 00 00 
  803a0b:	ff d0                	callq  *%rax
  803a0d:	89 45 fc             	mov    %eax,-0x4(%rbp)
  803a10:	83 7d fc 00          	cmpl   $0x0,-0x4(%rbp)
  803a14:	79 02                	jns    803a18 <dup+0x16f>
		goto err;
  803a16:	eb 05                	jmp    803a1d <dup+0x174>

	return newfdnum;
  803a18:	8b 45 c8             	mov    -0x38(%rbp),%eax
  803a1b:	eb 33                	jmp    803a50 <dup+0x1a7>

err:
	sys_page_unmap(0, newfd);
  803a1d:	48 8b 45 f0          	mov    -0x10(%rbp),%rax
  803a21:	48 89 c6             	mov    %rax,%rsi
  803a24:	bf 00 00 00 00       	mov    $0x0,%edi
  803a29:	48 b8 b1 28 80 00 00 	movabs $0x8028b1,%rax
  803a30:	00 00 00 
  803a33:	ff d0                	callq  *%rax
	sys_page_unmap(0, nva);
  803a35:	48 8b 45 e0          	mov    -0x20(%rbp),%rax
